ASxxxx Linker V03.00/V05.40 + sdld,  page 1.
Hexadecimal  [32-Bits]

Area                                    Addr        Size        Decimal Bytes (Attributes)
--------------------------------        ----        ----        ------- ----- ------------
.  .ABS.                            00000000    00000000 =           0. bytes (ABS,CON)

      Value  Global                              Global Defined In Module
      -----  --------------------------------   ------------------------
     00000000  .__.ABS.                           
     00000000  _rRAMG                             
     00000000  l__BASE                         
     00000000  l__BSS                          
     00000000  l__CABS                         
     00000000  l__CODE_0                       
     00000000  l__CRASH_HEADER                 
     00000000  l__CRASH_SCRATCH                
     00000000  l__DABS                         
     00000000  l__HEADER                       
     00000000  l__HEADER_LCD                   
     00000000  l__HEADER_SIO                   
     00000000  l__HEADER_TIMER                 
     00000000  l__HEAP                         
     00000000  l__HEAP_END                     
     00000000  l__HRAM                         
     00000000  l__LIT                          
     00000000  s__CABS                         
     00000000  s__CRASH_HEADER                 
     00000000  s__CRASH_HEADER0                
     00000000  s__CRASH_HEADER1                
     00000000  s__CRASH_SCRATCH                
     00000000  s__CRASH_SCRATCH2               
     00000000  s__DABS                         
     00000000  s__HEADER                       
     00000000  s__HEADER0                      
     00000000  s__HEADER1                      
     00000000  s__HEADER10                     
     00000000  s__HEADER11                     
     00000000  s__HEADER2                      
     00000000  s__HEADER3                      
     00000000  s__HEADER4                      
     00000000  s__HEADER5                      
     00000000  s__HEADER6                      
     00000000  s__HEADER7                      
     00000000  s__HEADER8                      
     00000000  s__HEADER9                      
     00000000  s__HEADER_LCD                   
     00000000  s__HEADER_LCD0                  
     00000000  s__HEADER_SIO                   
     00000000  s__HEADER_SIO0                  
     00000000  s__HEADER_TIMER                 
     00000000  s__HEADER_TIMER0                
     00000000  s__HEADERa                      
     00000000  s__HEADERb                      
     00000000  s__HEADERc                      
     00000000  s__HEADERd                      
     00000000  s__HEADERe                      
     00000000  s__HEADERf                      
     00000000  s__HRAM                         
ASxxxx Linker V03.00/V05.40 + sdld,  page 2.
Hexadecimal  [32-Bits]

Area                                    Addr        Size        Decimal Bytes (Attributes)
--------------------------------        ----        ----        ------- ----- ------------
.  .ABS.                            00000000    00000000 =           0. bytes (ABS,CON)

      Value  Global                              Global Defined In Module
      -----  --------------------------------   ------------------------
     00000000  s__HRAM12                       
     00000001  ___bank_VM_ACTOR                   vm_actor
     00000001  ___bank_VM_SGB                     vm_sgb
     00000001  ___bank_song_action_boss_fight2_   song_action_boss_fight2_Data
     00000001  b_events_init                      events
     00000001  b_timers_init                      events
     00000001  b_ui_draw_frame                    ui
     00000001  b_ui_draw_text_buffer_char         ui
     00000001  b_ui_init                          ui
     00000001  b_ui_load_tiles                    ui
     00000001  b_ui_run_menu                      ui
     00000001  b_ui_run_modal                     ui
     00000001  b_ui_set_start_tile                ui
     00000001  b_vm_actor_activate                vm_actor
     00000001  b_vm_actor_begin_update            vm_actor
     00000001  b_vm_actor_deactivate              vm_actor
     00000001  b_vm_actor_emote                   vm_actor
     00000001  b_vm_actor_get_angle               vm_actor
     00000001  b_vm_actor_get_anim_frame          vm_actor
     00000001  b_vm_actor_get_dir                 vm_actor
     00000001  b_vm_actor_get_pos                 vm_actor
     00000001  b_vm_actor_move_cancel             vm_actor
     00000001  b_vm_actor_move_to                 vm_actor
     00000001  b_vm_actor_replace_tile            vm_actor
     00000001  b_vm_actor_set_anim                vm_actor
     00000001  b_vm_actor_set_anim_frame          vm_actor
     00000001  b_vm_actor_set_anim_set            vm_actor
     00000001  b_vm_actor_set_anim_tick           vm_actor
     00000001  b_vm_actor_set_bounds              vm_actor
     00000001  b_vm_actor_set_dir                 vm_actor
     00000001  b_vm_actor_set_flags               vm_actor
     00000001  b_vm_actor_set_move_speed          vm_actor
     00000001  b_vm_actor_set_pos                 vm_actor
     00000001  b_vm_actor_set_spritesheet         vm_actor
     00000001  b_vm_actor_set_spritesheet_by_re   vm_actor
     00000001  b_vm_actor_terminate_update        vm_actor
     00000001  l__GSFINAL                      
     00000001  l__HEADER0                      
     00000001  l__HEADER5                      
     00000001  l__HEADERa                      
     00000001  l__HEADERb                      
     00000001  l__HEADERc                      
     00000001  l__HEADERe                      
     00000001  l__HEADERf                      
     00000002  ___bank_VM_MAIN                    vm
     00000002  ___bank_actor_1_update             actor_1_update
     00000002  ___bank_bg_triathlon_ziel_gro__t   bg_triathlon_ziel_gro__tiles
     00000002  ___bank_scene_7_init               scene_7_init
     00000002  ___mute_mask_sound_sweetsounds_s   sound_sweetsounds_sfx_naked_
     00000002  ___mute_mask_sound_sweetsounds_s   sound_sweetsounds_sfx_naked_
     00000002  ___mute_mask_sound_sweetsounds_s   sound_sweetsounds_sfx_naked_
ASxxxx Linker V03.00/V05.40 + sdld,  page 3.
Hexadecimal  [32-Bits]

Area                                    Addr        Size        Decimal Bytes (Attributes)
--------------------------------        ----        ----        ------- ----- ------------
.  .ABS.                            00000000    00000000 =           0. bytes (ABS,CON)

      Value  Global                              Global Defined In Module
      -----  --------------------------------   ------------------------
     00000002  ___mute_mask_sound_sweetsounds_s   sound_sweetsounds_sfx_naked_
     00000002  ___mute_mask_sound_sweetsounds_s   sound_sweetsounds_sfx_naked_
     00000002  ___mute_mask_sound_sweetsounds_s   sound_sweetsounds_sfx_naked_
     00000002  ___mute_mask_sound_sweetsounds_s   sound_sweetsounds_sfx_naked_
     00000002  ___mute_mask_sound_sweetsounds_s   sound_sweetsounds_sfx_naked_
     00000002  b_script_detach_hthread            vm
     00000002  b_script_execute                   vm
     00000002  b_script_runner_init               vm
     00000002  b_script_terminate                 vm
     00000002  b_vm_call                          vm
     00000002  b_vm_call_far                      vm
     00000002  b_vm_get_indirect                  vm
     00000002  b_vm_get_int16                     vm
     00000002  b_vm_get_int8                      vm
     00000002  b_vm_get_tlocal                    vm
     00000002  b_vm_get_uint8                     vm
     00000002  b_vm_idle                          vm
     00000002  b_vm_if                            vm
     00000002  b_vm_if_const                      vm
     00000002  b_vm_init_rng                      vm
     00000002  b_vm_invoke                        vm
     00000002  b_vm_join                          vm
     00000002  b_vm_jump                          vm
     00000002  b_vm_lock                          vm
     00000002  b_vm_loop                          vm
     00000002  b_vm_memcpy                        vm
     00000002  b_vm_memset                        vm
     00000002  b_vm_poll_loaded                   vm
     00000002  b_vm_pop                           vm
     00000002  b_vm_push                          vm
     00000002  b_vm_push_reference                vm
     00000002  b_vm_push_value                    vm
     00000002  b_vm_push_value_ind                vm
     00000002  b_vm_raise                         vm
     00000002  b_vm_rand                          vm
     00000002  b_vm_reserve                       vm
     00000002  b_vm_ret                           vm
     00000002  b_vm_ret_far                       vm
     00000002  b_vm_set                           vm
     00000002  b_vm_set_const                     vm
     00000002  b_vm_set_const_int16               vm
     00000002  b_vm_set_const_int8                vm
     00000002  b_vm_set_indirect                  vm
     00000002  b_vm_set_int16                     vm
     00000002  b_vm_set_int8                      vm
     00000002  b_vm_set_uint8                     vm
     00000002  b_vm_terminate                     vm
     00000002  b_vm_test_terminate                vm
     00000002  b_vm_unlock                        vm
     00000002  b_wait_frames                      vm
     00000002  l__HEADER10                     
ASxxxx Linker V03.00/V05.40 + sdld,  page 4.
Hexadecimal  [32-Bits]

Area                                    Addr        Size        Decimal Bytes (Attributes)
--------------------------------        ----        ----        ------- ----- ------------
.  .ABS.                            00000000    00000000 =           0. bytes (ABS,CON)

      Value  Global                              Global Defined In Module
      -----  --------------------------------   ------------------------
     00000002  l__HEADER6                      
     00000002  l__HEADERd                      
     00000003  ___bank_actor_37_interact          actor_37_interact
     00000003  ___bank_bg_start_winnies_world4_   bg_start_winnies_world4_tile
     00000003  ___bank_script_input_0             script_input_0
     00000003  ___bank_trigger_16_interact        trigger_16_interact
     00000003  b_platform_init                    platform
     00000003  b_platform_update                  platform
     00000003  l__HEADER9                      
     00000003  l__HEADER_LCD0                  
     00000003  l__HRAM12                       
     00000004  ___bank_ACTOR                      actor
     00000004  ___bank_actor_43_interact          actor_43_interact
     00000004  ___bank_font_gbs_variable_width    font_gbs_variable_width
     00000004  ___bank_scene_19_init              scene_19_init
     00000004  ___bank_trigger_5_interact         trigger_5_interact
     00000004  b_activate_actor                   actor
     00000004  b_activate_actors_in_col           actor
     00000004  b_activate_actors_in_row           actor
     00000004  b_actor_at_tile                    actor
     00000004  b_actor_get_frame_offset           actor
     00000004  b_actor_in_front_of_player         actor
     00000004  b_actor_overlapping_bb             actor
     00000004  b_actor_overlapping_player         actor
     00000004  b_actor_set_anim_idle              actor
     00000004  b_actor_set_anim_moving            actor
     00000004  b_actor_set_dir                    actor
     00000004  b_actor_set_frame_offset           actor
     00000004  b_actor_set_frames                 actor
     00000004  b_actors_handle_player_collision   actor
     00000004  b_actors_init                      actor
     00000004  b_check_collision_in_direction     actor
     00000004  b_deactivate_actor                 actor
     00000004  b_erase_flash                      
     00000004  b_player_init                      actor
     00000004  b_save_sram_banks                  
     00000004  l__CRASH_HEADER1                
     00000004  l__HEADER_SIO0                  
     00000004  l__HEADER_TIMER0                
     00000005  ___bank_actor_26_interact          actor_26_interact
     00000005  ___bank_bg_underwater_tilemap      bg_underwater_tilemap
     00000005  ___bank_bg_underwater_tilemap_at   bg_underwater_tilemap_attr
     00000005  ___bank_scene_10_sprites           scene_10_sprites
     00000005  ___bank_scene_5_collisions         scene_5_collisions
     00000005  ___bank_song_action_monty_s_over   song_action_monty_s_overhea_
     00000005  ___bank_song_exploration_determi   song_exploration_determined_
     00000005  l__CRASH_HEADER0                
     00000005  l__HEADER1                      
     00000006  ___bank_VM_UI                      vm_ui
     00000006  ___bank_actor_13_interact          actor_13_interact
     00000006  ___bank_actor_28_interact          actor_28_interact
ASxxxx Linker V03.00/V05.40 + sdld,  page 5.
Hexadecimal  [32-Bits]

Area                                    Addr        Size        Decimal Bytes (Attributes)
--------------------------------        ----        ----        ------- ----- ------------
.  .ABS.                            00000000    00000000 =           0. bytes (ABS,CON)

      Value  Global                              Global Defined In Module
      -----  --------------------------------   ------------------------
     00000006  ___bank_actor_35_interact          actor_35_interact
     00000006  ___bank_actor_38_interact          actor_38_interact
     00000006  ___bank_bg_huette_tileset          bg_huette_tileset
     00000006  ___bank_bg_prolog_tv_wohnzimmer_   bg_prolog_tv_wohnzimmer_tile
     00000006  ___bank_scene_0_sprites            scene_0_sprites
     00000006  b_do_load_palette                  data_manager
     00000006  b_load_background                  data_manager
     00000006  b_load_bkg_tileset                 data_manager
     00000006  b_load_bounds                      data_manager
     00000006  b_load_emote                       data_manager
     00000006  b_load_init                        data_manager
     00000006  b_load_player                      data_manager
     00000006  b_load_scene                       data_manager
     00000006  b_load_sprite                      data_manager
     00000006  b_shmup_init                       shmup
     00000006  b_shmup_update                     shmup
     00000006  b_vm_choice                        vm_ui
     00000006  b_vm_display_text                  vm_ui
     00000006  b_vm_overlay_clear                 vm_ui
     00000006  b_vm_overlay_move_to               vm_ui
     00000006  b_vm_overlay_scroll                vm_ui
     00000006  b_vm_overlay_set_map               vm_ui
     00000006  b_vm_overlay_set_scroll            vm_ui
     00000006  b_vm_overlay_set_submap            vm_ui
     00000006  b_vm_overlay_set_submap_ex         vm_ui
     00000006  b_vm_overlay_setpos                vm_ui
     00000006  b_vm_overlay_show                  vm_ui
     00000006  b_vm_overlay_wait                  vm_ui
     00000006  b_vm_set_font                      vm_ui
     00000006  b_vm_set_text_sound                vm_ui
     00000006  b_vm_switch_text_layer             vm_ui
     00000006  l__HEADER8                      
     00000007  ___bank_VM_GAMEBOY                 vm_gameboy
     00000007  ___bank_actor_36_interact          actor_36_interact
     00000007  ___bank_actor_68_interact          actor_68_interact
     00000007  ___bank_actor_69_interact          actor_69_interact
     00000007  ___bank_bg_prolog_mb_wohnzimmer_   bg_prolog_mb_wohnzimmer_tile
     00000007  ___bank_song_action_free_ost_1_b   song_action_free_ost_1_back_
     00000007  b_CGBZeroPalette                   palette
     00000007  b_adventure_init                   adventure
     00000007  b_adventure_update                 adventure
     00000007  b_core_reset                       core
     00000007  b_core_run                         core
     00000007  b_palette_init                     palette
     00000007  b_scroll_init                      scroll
     00000007  b_scroll_repaint                   scroll
     00000007  b_scroll_reset                     scroll
     00000007  b_scroll_update                    scroll
     00000007  b_topdown_init                     topdown
     00000007  b_topdown_update                   topdown
     00000007  b_vm_context_prepare               vm_gameboy
ASxxxx Linker V03.00/V05.40 + sdld,  page 6.
Hexadecimal  [32-Bits]

Area                                    Addr        Size        Decimal Bytes (Attributes)
--------------------------------        ----        ----        ------- ----- ------------
.  .ABS.                            00000000    00000000 =           0. bytes (ABS,CON)

      Value  Global                              Global Defined In Module
      -----  --------------------------------   ------------------------
     00000007  b_vm_fade                          vm_gameboy
     00000007  b_vm_get_tile_xy                   vm_gameboy
     00000007  b_vm_input_attach                  vm_gameboy
     00000007  b_vm_input_detach                  vm_gameboy
     00000007  b_vm_input_get                     vm_gameboy
     00000007  b_vm_input_wait                    vm_gameboy
     00000007  b_vm_load_tiles                    vm_gameboy
     00000007  b_vm_load_tileset                  vm_gameboy
     00000007  b_vm_poll                          vm_gameboy
     00000007  b_vm_replace_tile                  vm_gameboy
     00000007  b_vm_replace_tile_xy               vm_gameboy
     00000007  b_vm_rumble                        vm_gameboy
     00000007  b_vm_set_sprite_mode               vm_gameboy
     00000007  b_vm_set_sprites_visible           vm_gameboy
     00000007  b_vm_timer_prepare                 vm_gameboy
     00000007  b_vm_timer_reset                   vm_gameboy
     00000007  b_vm_timer_set                     vm_gameboy
     00000007  b_vm_timer_stop                    vm_gameboy
     00000007  l__HEADER2                      
     00000008  ___bank_VM_SIO                     vm_sio
     00000008  ___bank_actor_27_interact          actor_27_interact
     00000008  ___bank_actor_3_interact           actor_3_interact
     00000008  ___bank_actor_4_interact           actor_4_interact
     00000008  ___bank_actor_52_interact          actor_52_interact
     00000008  ___bank_actor_67_interact          actor_67_interact
     00000008  ___bank_actor_70_interact          actor_70_interact
     00000008  ___bank_bg_fischteich_big_tilese   bg_fischteich_big_tileset
     00000008  ___bank_bg_prolog_mb_schlafzimme   bg_prolog_mb_schlafzimmer_ti
     00000008  ___bank_bg_prolog_mb_vorraum_til   bg_prolog_mb_vorraum_tileset
     00000008  ___bank_bg_prolog_tv_buero_tiles   bg_prolog_tv_buero_tileset
     00000008  ___mute_mask_sound_sweetsounds_s   sound_sweetsounds_sfx_naked_
     00000008  ___mute_mask_sound_sweetsounds_s   sound_sweetsounds_sfx_naked_
     00000008  b___HandleCrash_banked             
     00000008  b_atan2                            math_atan2
     00000008  b_data_clear                       load_save
     00000008  b_data_init                        load_save
     00000008  b_data_load                        load_save
     00000008  b_data_peek                        load_save
     00000008  b_data_save                        load_save
     00000008  b_gbprinter_detect                 gbprinter
     00000008  b_gbprinter_print_overlay          gbprinter
     00000008  b_pointnclick_init                 pointnclick
     00000008  b_pointnclick_update               pointnclick
     00000008  b_projectile_launch                projectiles
     00000008  b_projectiles_init                 projectiles
     00000008  b_trigger_activate_at              trigger
     00000008  b_trigger_activate_at_intersecti   trigger
     00000008  b_trigger_at_intersection          trigger
     00000008  b_trigger_at_tile                  trigger
     00000008  b_trigger_interact                 trigger
     00000008  b_trigger_reset                    trigger
ASxxxx Linker V03.00/V05.40 + sdld,  page 7.
Hexadecimal  [32-Bits]

Area                                    Addr        Size        Decimal Bytes (Attributes)
--------------------------------        ----        ----        ------- ----- ------------
.  .ABS.                            00000000    00000000 =           0. bytes (ABS,CON)

      Value  Global                              Global Defined In Module
      -----  --------------------------------   ------------------------
     00000008  b_vm_sio_exchange                  vm_sio
     00000008  b_vm_sio_set_mode                  vm_sio
     00000008  l__HEADER3                      
     00000009  ___bank_VM_CAMERA                  vm_camera
     00000009  ___bank_actor_32_interact          actor_32_interact
     00000009  ___bank_actor_62_interact          actor_62_interact
     00000009  ___bank_actor_64_interact          actor_64_interact
     00000009  ___bank_bg_fischteich_big_tilema   bg_fischteich_big_tilemap
     00000009  ___bank_bg_fischteich_big_tilema   bg_fischteich_big_tilemap_at
     00000009  ___bank_bg_glueckwuensche_1_tile   bg_glueckwuensche_1_tileset
     00000009  ___bank_bg_glueckwuensche_3_tile   bg_glueckwuensche_3_tileset
     00000009  ___bank_bg_prolog_mb_bad_tileset   bg_prolog_mb_bad_tileset
     00000009  ___bank_bg_prolog_mb_wohnzimmer_   bg_prolog_mb_wohnzimmer_tile
     00000009  ___bank_bg_prolog_mb_wohnzimmer_   bg_prolog_mb_wohnzimmer_tile
     00000009  ___bank_bg_prolog_tv_wohnzimmer_   bg_prolog_tv_wohnzimmer_tile
     00000009  ___bank_bg_prolog_tv_wohnzimmer_   bg_prolog_tv_wohnzimmer_tile
     00000009  ___bank_bg_triathlon_ende_tilema   bg_triathlon_ende_tilemap
     00000009  ___bank_bg_triathlon_ende_tilema   bg_triathlon_ende_tilemap_at
     00000009  ___bank_bg_triathlon_ziel_gro__t   bg_triathlon_ziel_gro__tilem
     00000009  ___bank_bg_triathlon_ziel_gro__t   bg_triathlon_ziel_gro__tilem
     00000009  ___bank_scene_11_collisions        scene_11_collisions
     00000009  ___bank_scene_12_collisions        scene_12_collisions
     00000009  ___bank_scene_14_init              scene_14_init
     00000009  ___bank_scene_14_sprites           scene_14_sprites
     00000009  ___bank_scene_16_collisions        scene_16_collisions
     00000009  ___bank_scene_17_collisions        scene_17_collisions
     00000009  ___bank_scene_18_collisions        scene_18_collisions
     00000009  b_camera_shake_frames              vm_camera
     00000009  b_fade_applypalettechange          fade_manager
     00000009  b_fade_in                          fade_manager
     00000009  b_fade_in_modal                    fade_manager
     00000009  b_fade_init                        fade_manager
     00000009  b_fade_out                         fade_manager
     00000009  b_fade_out_modal                   fade_manager
     00000009  b_fade_setspeed                    fade_manager
     00000009  b_fade_update                      fade_manager
     00000009  b_vm_camera_move_to                vm_camera
     00000009  b_vm_camera_set_pos                vm_camera
     0000000A  ___bank_VM_PALETTE                 vm_palette
     0000000A  ___bank_actor_11_update            actor_11_update
     0000000A  ___bank_actor_14_update            actor_14_update
     0000000A  ___bank_actor_24_interact          actor_24_interact
     0000000A  ___bank_actor_25_interact          actor_25_interact
     0000000A  ___bank_actor_2_interact           actor_2_interact
     0000000A  ___bank_actor_5_interact           actor_5_interact
     0000000A  ___bank_bg_catfight2_tileset       bg_catfight2_tileset
     0000000A  ___bank_bg_glueckwuensche_2_tile   bg_glueckwuensche_2_tileset
     0000000A  ___bank_bg_huette_tilemap          bg_huette_tilemap
     0000000A  ___bank_bg_huette_tilemap_attr     bg_huette_tilemap_attr
     0000000A  ___bank_bg_prolog_mb_vorraum_til   bg_prolog_mb_vorraum_tilemap
     0000000A  ___bank_bg_prolog_mb_vorraum_til   bg_prolog_mb_vorraum_tilemap
ASxxxx Linker V03.00/V05.40 + sdld,  page 8.
Hexadecimal  [32-Bits]

Area                                    Addr        Size        Decimal Bytes (Attributes)
--------------------------------        ----        ----        ------- ----- ------------
.  .ABS.                            00000000    00000000 =           0. bytes (ABS,CON)

      Value  Global                              Global Defined In Module
      -----  --------------------------------   ------------------------
     0000000A  ___bank_bg_prolog_stiege_tileset   bg_prolog_stiege_tileset
     0000000A  ___bank_bg_prolog_tv_vorzimmer_t   bg_prolog_tv_vorzimmer_tiles
     0000000A  ___bank_bg_triathlon_ende_tilese   bg_triathlon_ende_tileset
     0000000A  ___bank_bg_underwater_tileset      bg_underwater_tileset
     0000000A  ___bank_scene_11_actors            scene_11_actors
     0000000A  ___bank_scene_18_actors            scene_18_actors
     0000000A  ___bank_scene_19_collisions        scene_19_collisions
     0000000A  ___bank_scene_4_actors             scene_4_actors
     0000000A  ___bank_scene_4_collisions         scene_4_collisions
     0000000A  ___bank_scene_5_actors             scene_5_actors
     0000000A  ___bank_scene_7_collisions         scene_7_collisions
     0000000A  ___bank_sound_sweetsounds_sfx_na   sound_sweetsounds_sfx_naked_
     0000000A  ___bank_sprite_kid_boy_tileset     sprite_kid_boy_tileset
     0000000A  ___bank_sprite_kid_girl_tileset    sprite_kid_girl_tileset
     0000000A  ___bank_sprite_npc003_tileset      sprite_npc003_tileset
     0000000A  ___bank_sprite_npc004_tileset      sprite_npc004_tileset
     0000000A  ___bank_sprite_npc005_tileset      sprite_npc005_tileset
     0000000A  ___bank_sprite_npc006_tileset      sprite_npc006_tileset
     0000000A  ___bank_sprite_npc202_tileset      sprite_npc202_tileset
     0000000A  ___bank_trigger_17_interact        trigger_17_interact
     0000000A  b_set_sgb_border                   sgb_border
     0000000A  b_vm_load_palette                  vm_palette
     0000000B  ___bank_VM_MATH                    vm_math
     0000000B  ___bank_VM_MUSIC                   vm_music
     0000000B  ___bank_bg_catfight2_tilemap       bg_catfight2_tilemap
     0000000B  ___bank_bg_catfight2_tilemap_att   bg_catfight2_tilemap_attr
     0000000B  ___bank_bg_glueckwuensche_1_tile   bg_glueckwuensche_1_tilemap
     0000000B  ___bank_bg_glueckwuensche_1_tile   bg_glueckwuensche_1_tilemap_
     0000000B  ___bank_bg_glueckwuensche_2_tile   bg_glueckwuensche_2_tilemap
     0000000B  ___bank_bg_glueckwuensche_3_tile   bg_glueckwuensche_3_tilemap
     0000000B  ___bank_bg_prolog_mb_bad_tilemap   bg_prolog_mb_bad_tilemap
     0000000B  ___bank_bg_prolog_mb_bad_tilemap   bg_prolog_mb_bad_tilemap_att
     0000000B  ___bank_bg_prolog_mb_schlafzimme   bg_prolog_mb_schlafzimmer_ti
     0000000B  ___bank_bg_prolog_mb_schlafzimme   bg_prolog_mb_schlafzimmer_ti
     0000000B  ___bank_bg_prolog_stiege_tilemap   bg_prolog_stiege_tilemap
     0000000B  ___bank_bg_prolog_stiege_tilemap   bg_prolog_stiege_tilemap_att
     0000000B  ___bank_bg_prolog_tv_buero_tilem   bg_prolog_tv_buero_tilemap
     0000000B  ___bank_bg_prolog_tv_buero_tilem   bg_prolog_tv_buero_tilemap_a
     0000000B  ___bank_bg_prolog_tv_vorzimmer_t   bg_prolog_tv_vorzimmer_tilem
     0000000B  ___bank_bg_prolog_tv_vorzimmer_t   bg_prolog_tv_vorzimmer_tilem
     0000000B  ___bank_bg_start_tilemap           bg_start_tilemap
     0000000B  ___bank_bg_start_tilemap_attr      bg_start_tilemap_attr
     0000000B  ___bank_bg_start_winnies_world4_   bg_start_winnies_world4_tile
     0000000B  ___bank_bg_triathlon_start_tilem   bg_triathlon_start_tilemap
     0000000B  ___bank_bg_triathlon_start_tilem   bg_triathlon_start_tilemap_a
     0000000B  ___bank_bg_triathlon_start_tiles   bg_triathlon_start_tileset
     0000000B  ___bank_bg_triathlon_strasse_til   bg_triathlon_strasse_tilemap
     0000000B  ___bank_bg_triathlon_strasse_til   bg_triathlon_strasse_tilemap
     0000000B  ___bank_scene_0_collisions         scene_0_collisions
     0000000B  ___bank_scene_10_collisions        scene_10_collisions
     0000000B  ___bank_scene_13_collisions        scene_13_collisions
ASxxxx Linker V03.00/V05.40 + sdld,  page 9.
Hexadecimal  [32-Bits]

Area                                    Addr        Size        Decimal Bytes (Attributes)
--------------------------------        ----        ----        ------- ----- ------------
.  .ABS.                            00000000    00000000 =           0. bytes (ABS,CON)

      Value  Global                              Global Defined In Module
      -----  --------------------------------   ------------------------
     0000000B  ___bank_scene_14_collisions        scene_14_collisions
     0000000B  ___bank_scene_15_collisions        scene_15_collisions
     0000000B  ___bank_scene_16_actors            scene_16_actors
     0000000B  ___bank_scene_1_collisions         scene_1_collisions
     0000000B  ___bank_scene_20_collisions        scene_20_collisions
     0000000B  ___bank_scene_21_collisions        scene_21_collisions
     0000000B  ___bank_scene_22_collisions        scene_22_collisions
     0000000B  ___bank_scene_2_collisions         scene_2_collisions
     0000000B  ___bank_scene_3_collisions         scene_3_collisions
     0000000B  ___bank_scene_6_collisions         scene_6_collisions
     0000000B  ___bank_scene_9_collisions         scene_9_collisions
     0000000B  ___bank_sprite_05b_2               sprite_05b_2
     0000000B  ___bank_sprite_cat_animation2_ti   sprite_cat_animation2_tilese
     0000000B  ___bank_sprite_cat_animation_til   sprite_cat_animation_tileset
     0000000B  ___bank_sprite_player_tileset      sprite_player_tileset
     0000000B  ___bank_sprite_portal2_tileset     sprite_portal2_tileset
     0000000B  ___bank_sprite_start_btn2_tilese   sprite_start_btn2_tileset
     0000000B  ___bank_sprite_winston_v4_tilese   sprite_winston_v4_tileset
     0000000B  b_vm_cos_scale                     vm_math
     0000000B  b_vm_music_mute                    vm_music
     0000000B  b_vm_music_play                    vm_music
     0000000B  b_vm_music_routine                 vm_music
     0000000B  b_vm_music_setpos                  vm_music
     0000000B  b_vm_music_stop                    vm_music
     0000000B  b_vm_sfx_play                      vm_music
     0000000B  b_vm_sin_scale                     vm_math
     0000000B  b_vm_sound_mastervol               vm_music
     0000000C  ___bank_VM_GBPRINTER               vm_gbprinter
     0000000C  ___bank_VM_LOAD_SAVE               vm_load_save
     0000000C  ___bank_VM_PROJECTILE              vm_projectiles
     0000000C  ___bank_VM_RTC                     vm_rtc
     0000000C  ___bank_VM_SCENE                   vm_scene
     0000000C  ___bank_actor_11_interact          actor_11_interact
     0000000C  ___bank_actor_14_interact          actor_14_interact
     0000000C  ___bank_actor_18_update            actor_18_update
     0000000C  ___bank_actor_19_update            actor_19_update
     0000000C  ___bank_actor_20_update            actor_20_update
     0000000C  ___bank_actor_22_update            actor_22_update
     0000000C  ___bank_actor_29_update            actor_29_update
     0000000C  ___bank_actor_34_update            actor_34_update
     0000000C  ___bank_actor_41_interact          actor_41_interact
     0000000C  ___bank_actor_42_interact          actor_42_interact
     0000000C  ___bank_actor_44_update            actor_44_update
     0000000C  ___bank_actor_46_interact          actor_46_interact
     0000000C  ___bank_actor_63_interact          actor_63_interact
     0000000C  ___bank_actor_63_update            actor_63_update
     0000000C  ___bank_actor_66_interact          actor_66_interact
     0000000C  ___bank_actor_9_update             actor_9_update
     0000000C  ___bank_bg_triathlon_strasse_til   bg_triathlon_strasse_tileset
     0000000C  ___bank_frame_image                frame_image
     0000000C  ___bank_palette_0                  palette_0
ASxxxx Linker V03.00/V05.40 + sdld,  page 10.
Hexadecimal  [32-Bits]

Area                                    Addr        Size        Decimal Bytes (Attributes)
--------------------------------        ----        ----        ------- ----- ------------
.  .ABS.                            00000000    00000000 =           0. bytes (ABS,CON)

      Value  Global                              Global Defined In Module
      -----  --------------------------------   ------------------------
     0000000C  ___bank_palette_1                  palette_1
     0000000C  ___bank_palette_10                 palette_10
     0000000C  ___bank_palette_11                 palette_11
     0000000C  ___bank_palette_12                 palette_12
     0000000C  ___bank_palette_13                 palette_13
     0000000C  ___bank_palette_14                 palette_14
     0000000C  ___bank_palette_15                 palette_15
     0000000C  ___bank_palette_16                 palette_16
     0000000C  ___bank_palette_17                 palette_17
     0000000C  ___bank_palette_18                 palette_18
     0000000C  ___bank_scene_0_actors             scene_0_actors
     0000000C  ___bank_scene_0_init               scene_0_init
     0000000C  ___bank_scene_10_actors            scene_10_actors
     0000000C  ___bank_scene_11_init              scene_11_init
     0000000C  ___bank_scene_12_actors            scene_12_actors
     0000000C  ___bank_scene_13_actors            scene_13_actors
     0000000C  ___bank_scene_14_actors            scene_14_actors
     0000000C  ___bank_scene_15_init              scene_15_init
     0000000C  ___bank_scene_17_actors            scene_17_actors
     0000000C  ___bank_scene_17_init              scene_17_init
     0000000C  ___bank_scene_18_init              scene_18_init
     0000000C  ___bank_scene_19_actors            scene_19_actors
     0000000C  ___bank_scene_22_actors            scene_22_actors
     0000000C  ___bank_scene_2_init               scene_2_init
     0000000C  ___bank_scene_5_init               scene_5_init
     0000000C  ___bank_scene_7_actors             scene_7_actors
     0000000C  ___bank_script_6                   script_6
     0000000C  ___bank_script_9                   script_9
     0000000C  ___bank_script_engine_init         
     0000000C  ___bank_sound_sweetsounds_sfx_na   sound_sweetsounds_sfx_naked_
     0000000C  ___bank_sound_sweetsounds_sfx_na   sound_sweetsounds_sfx_naked_
     0000000C  ___bank_sound_sweetsounds_sfx_na   sound_sweetsounds_sfx_naked_
     0000000C  ___bank_sound_sweetsounds_sfx_na   sound_sweetsounds_sfx_naked_
     0000000C  ___bank_sound_sweetsounds_sfx_na   sound_sweetsounds_sfx_naked_
     0000000C  ___bank_sound_sweetsounds_sfx_na   sound_sweetsounds_sfx_naked_
     0000000C  ___bank_sound_sweetsounds_sfx_na   sound_sweetsounds_sfx_naked_
     0000000C  ___bank_sound_sweetsounds_sfx_na   sound_sweetsounds_sfx_naked_
     0000000C  ___bank_sprite_05b_2_tileset       sprite_05b_2_tileset
     0000000C  ___bank_sprite_biker_tileset       sprite_biker_tileset
     0000000C  ___bank_sprite_cat_animation       sprite_cat_animation
     0000000C  ___bank_sprite_cat_animation2      sprite_cat_animation2
     0000000C  ___bank_sprite_chest               sprite_chest
     0000000C  ___bank_sprite_kid_boy             sprite_kid_boy
     0000000C  ___bank_sprite_kid_girl            sprite_kid_girl
     0000000C  ___bank_sprite_markus              sprite_markus
     0000000C  ___bank_sprite_markus_tileset      sprite_markus_tileset
     0000000C  ___bank_sprite_martin2             sprite_martin2
     0000000C  ___bank_sprite_martin2_tileset     sprite_martin2_tileset
     0000000C  ___bank_sprite_npc001              sprite_npc001
     0000000C  ___bank_sprite_npc001_tileset      sprite_npc001_tileset
     0000000C  ___bank_sprite_npc003              sprite_npc003
ASxxxx Linker V03.00/V05.40 + sdld,  page 11.
Hexadecimal  [32-Bits]

Area                                    Addr        Size        Decimal Bytes (Attributes)
--------------------------------        ----        ----        ------- ----- ------------
.  .ABS.                            00000000    00000000 =           0. bytes (ABS,CON)

      Value  Global                              Global Defined In Module
      -----  --------------------------------   ------------------------
     0000000C  ___bank_sprite_npc004              sprite_npc004
     0000000C  ___bank_sprite_npc005              sprite_npc005
     0000000C  ___bank_sprite_npc006              sprite_npc006
     0000000C  ___bank_sprite_npc007              sprite_npc007
     0000000C  ___bank_sprite_npc007_tileset      sprite_npc007_tileset
     0000000C  ___bank_sprite_npc104              sprite_npc104
     0000000C  ___bank_sprite_npc104_tileset      sprite_npc104_tileset
     0000000C  ___bank_sprite_npc107              sprite_npc107
     0000000C  ___bank_sprite_npc107_tileset      sprite_npc107_tileset
     0000000C  ___bank_sprite_npc111              sprite_npc111
     0000000C  ___bank_sprite_npc111_tileset      sprite_npc111_tileset
     0000000C  ___bank_sprite_npc132              sprite_npc132
     0000000C  ___bank_sprite_npc132_tileset      sprite_npc132_tileset
     0000000C  ___bank_sprite_npc134              sprite_npc134
     0000000C  ___bank_sprite_npc134_tileset      sprite_npc134_tileset
     0000000C  ___bank_sprite_npc202              sprite_npc202
     0000000C  ___bank_sprite_pingpongball        sprite_pingpongball
     0000000C  ___bank_sprite_pingpongball_tile   sprite_pingpongball_tileset
     0000000C  ___bank_sprite_player              sprite_player
     0000000C  ___bank_sprite_portal2             sprite_portal2
     0000000C  ___bank_sprite_st_r                sprite_st_r
     0000000C  ___bank_sprite_st_r_tileset        sprite_st_r_tileset
     0000000C  ___bank_sprite_start_btn2          sprite_start_btn2
     0000000C  ___bank_sprite_sup2                sprite_sup2
     0000000C  ___bank_sprite_sup2_tileset        sprite_sup2_tileset
     0000000C  ___bank_sprite_sup_winnie_tilese   sprite_sup_winnie_tileset
     0000000C  ___bank_sprite_tobi                sprite_tobi
     0000000C  ___bank_sprite_tobi_tileset        sprite_tobi_tileset
     0000000C  ___bank_sprite_winston_v4          sprite_winston_v4
     0000000C  ___bank_sprite_winston_v5          sprite_winston_v5
     0000000C  ___bank_sprite_winston_v5_tilese   sprite_winston_v5_tileset
     0000000C  ___bank_trigger_10_interact        trigger_10_interact
     0000000C  ___bank_trigger_15_interact        trigger_15_interact
     0000000C  ___bank_trigger_19_interact        trigger_19_interact
     0000000C  ___bank_trigger_22_interact        trigger_22_interact
     0000000C  ___bank_trigger_3_interact         trigger_3_interact
     0000000C  ___bank_trigger_44_interact        trigger_44_interact
     0000000C  __start_save                    
     0000000C  b_input_init                       input
     0000000C  b_itoa_fmt                         vm_ui_a
     0000000C  b_music_events_poll                music_manager
     0000000C  b_music_init_driver                music_manager
     0000000C  b_music_init_events                music_manager
     0000000C  b_restore_sram                     flasher
     0000000C  b_restore_sram_bank                flasher
     0000000C  b_save_sram                        flasher
     0000000C  b_vm_print_detect                  vm_gbprinter
     0000000C  b_vm_print_overlay                 vm_gbprinter
     0000000C  b_vm_projectile_launch             vm_projectiles
     0000000C  b_vm_projectile_load_type          vm_projectiles
     0000000C  b_vm_rtc_get                       vm_rtc
ASxxxx Linker V03.00/V05.40 + sdld,  page 12.
Hexadecimal  [32-Bits]

Area                                    Addr        Size        Decimal Bytes (Attributes)
--------------------------------        ----        ----        ------- ----- ------------
.  .ABS.                            00000000    00000000 =           0. bytes (ABS,CON)

      Value  Global                              Global Defined In Module
      -----  --------------------------------   ------------------------
     0000000C  b_vm_rtc_latch                     vm_rtc
     0000000C  b_vm_rtc_set                       vm_rtc
     0000000C  b_vm_rtc_start                     vm_rtc
     0000000C  b_vm_save_clear                    vm_load_save
     0000000C  b_vm_save_peek                     vm_load_save
     0000000C  b_vm_scene_pop                     vm_scene
     0000000C  b_vm_scene_pop_all                 vm_scene
     0000000C  b_vm_scene_push                    vm_scene
     0000000C  b_vm_scene_stack_reset             vm_scene
     0000000D  ___bank_actor_10_update            actor_10_update
     0000000D  ___bank_actor_12_update            actor_12_update
     0000000D  ___bank_actor_30_update            actor_30_update
     0000000D  ___bank_actor_31_update            actor_31_update
     0000000D  ___bank_actor_33_update            actor_33_update
     0000000D  ___bank_actor_49_interact          actor_49_interact
     0000000D  ___bank_actor_49_update            actor_49_update
     0000000D  ___bank_actor_50_interact          actor_50_interact
     0000000D  ___bank_actor_50_update            actor_50_update
     0000000D  ___bank_actor_51_interact          actor_51_interact
     0000000D  ___bank_actor_51_update            actor_51_update
     0000000D  ___bank_actor_53_interact          actor_53_interact
     0000000D  ___bank_actor_53_update            actor_53_update
     0000000D  ___bank_actor_54_interact          actor_54_interact
     0000000D  ___bank_actor_54_update            actor_54_update
     0000000D  ___bank_actor_55_interact          actor_55_interact
     0000000D  ___bank_actor_55_update            actor_55_update
     0000000D  ___bank_actor_56_interact          actor_56_interact
     0000000D  ___bank_actor_56_update            actor_56_update
     0000000D  ___bank_actor_57_interact          actor_57_interact
     0000000D  ___bank_actor_57_update            actor_57_update
     0000000D  ___bank_actor_59_interact          actor_59_interact
     0000000D  ___bank_actor_59_update            actor_59_update
     0000000D  ___bank_actor_61_interact          actor_61_interact
     0000000D  ___bank_actor_61_update            actor_61_update
     0000000D  ___bank_actor_65_interact          actor_65_interact
     0000000D  ___bank_bg_catfight2               bg_catfight2
     0000000D  ___bank_bg_fischteich_big          bg_fischteich_big
     0000000D  ___bank_bg_glueckwuensche_1        bg_glueckwuensche_1
     0000000D  ___bank_bg_glueckwuensche_2        bg_glueckwuensche_2
     0000000D  ___bank_bg_glueckwuensche_3        bg_glueckwuensche_3
     0000000D  ___bank_bg_huette                  bg_huette
     0000000D  ___bank_bg_prolog_mb_bad           bg_prolog_mb_bad
     0000000D  ___bank_bg_prolog_mb_schlafzimme   bg_prolog_mb_schlafzimmer
     0000000D  ___bank_bg_prolog_mb_vorraum       bg_prolog_mb_vorraum
     0000000D  ___bank_bg_prolog_mb_wohnzimmer    bg_prolog_mb_wohnzimmer
     0000000D  ___bank_bg_prolog_stiege           bg_prolog_stiege
     0000000D  ___bank_bg_prolog_tv_buero         bg_prolog_tv_buero
     0000000D  ___bank_bg_prolog_tv_vorzimmer     bg_prolog_tv_vorzimmer
     0000000D  ___bank_bg_prolog_tv_wohnzimmer    bg_prolog_tv_wohnzimmer
     0000000D  ___bank_bg_start                   bg_start
     0000000D  ___bank_bg_start_tileset           bg_start_tileset
ASxxxx Linker V03.00/V05.40 + sdld,  page 13.
Hexadecimal  [32-Bits]

Area                                    Addr        Size        Decimal Bytes (Attributes)
--------------------------------        ----        ----        ------- ----- ------------
.  .ABS.                            00000000    00000000 =           0. bytes (ABS,CON)

      Value  Global                              Global Defined In Module
      -----  --------------------------------   ------------------------
     0000000D  ___bank_bg_start_winnies_world4    bg_start_winnies_world4
     0000000D  ___bank_bg_triathlon_ende          bg_triathlon_ende
     0000000D  ___bank_bg_triathlon_start         bg_triathlon_start
     0000000D  ___bank_bg_triathlon_strasse       bg_triathlon_strasse
     0000000D  ___bank_bg_triathlon_ziel_gro_     bg_triathlon_ziel_gro_
     0000000D  ___bank_bg_underwater              bg_underwater
     0000000D  ___bank_bootstrap_script           
     0000000D  ___bank_cursor_image               cursor_image
     0000000D  ___bank_emote_b                    emote_b
     0000000D  ___bank_emote_c                    emote_c
     0000000D  ___bank_emote_e                    emote_e
     0000000D  ___bank_emote_i                    emote_i
     0000000D  ___bank_emote_pause                emote_pause
     0000000D  ___bank_emote_question             emote_question
     0000000D  ___bank_emote_shock                emote_shock
     0000000D  ___bank_emote_sweat                emote_sweat
     0000000D  ___bank_palette_19                 palette_19
     0000000D  ___bank_palette_2                  palette_2
     0000000D  ___bank_palette_20                 palette_20
     0000000D  ___bank_palette_21                 palette_21
     0000000D  ___bank_palette_3                  palette_3
     0000000D  ___bank_palette_4                  palette_4
     0000000D  ___bank_palette_5                  palette_5
     0000000D  ___bank_palette_6                  palette_6
     0000000D  ___bank_palette_7                  palette_7
     0000000D  ___bank_palette_8                  palette_8
     0000000D  ___bank_palette_9                  palette_9
     0000000D  ___bank_scene_0                    scene_0
     0000000D  ___bank_scene_1                    scene_1
     0000000D  ___bank_scene_10                   scene_10
     0000000D  ___bank_scene_10_init              scene_10_init
     0000000D  ___bank_scene_10_triggers          scene_10_triggers
     0000000D  ___bank_scene_11                   scene_11
     0000000D  ___bank_scene_11_sprites           scene_11_sprites
     0000000D  ___bank_scene_11_triggers          scene_11_triggers
     0000000D  ___bank_scene_12                   scene_12
     0000000D  ___bank_scene_12_init              scene_12_init
     0000000D  ___bank_scene_12_sprites           scene_12_sprites
     0000000D  ___bank_scene_12_triggers          scene_12_triggers
     0000000D  ___bank_scene_13                   scene_13
     0000000D  ___bank_scene_13_init              scene_13_init
     0000000D  ___bank_scene_13_sprites           scene_13_sprites
     0000000D  ___bank_scene_13_triggers          scene_13_triggers
     0000000D  ___bank_scene_14                   scene_14
     0000000D  ___bank_scene_14_triggers          scene_14_triggers
     0000000D  ___bank_scene_15                   scene_15
     0000000D  ___bank_scene_15_actors            scene_15_actors
     0000000D  ___bank_scene_15_sprites           scene_15_sprites
     0000000D  ___bank_scene_15_triggers          scene_15_triggers
     0000000D  ___bank_scene_16                   scene_16
     0000000D  ___bank_scene_16_init              scene_16_init
ASxxxx Linker V03.00/V05.40 + sdld,  page 14.
Hexadecimal  [32-Bits]

Area                                    Addr        Size        Decimal Bytes (Attributes)
--------------------------------        ----        ----        ------- ----- ------------
.  .ABS.                            00000000    00000000 =           0. bytes (ABS,CON)

      Value  Global                              Global Defined In Module
      -----  --------------------------------   ------------------------
     0000000D  ___bank_scene_16_sprites           scene_16_sprites
     0000000D  ___bank_scene_16_triggers          scene_16_triggers
     0000000D  ___bank_scene_17                   scene_17
     0000000D  ___bank_scene_17_sprites           scene_17_sprites
     0000000D  ___bank_scene_17_triggers          scene_17_triggers
     0000000D  ___bank_scene_18                   scene_18
     0000000D  ___bank_scene_18_sprites           scene_18_sprites
     0000000D  ___bank_scene_18_triggers          scene_18_triggers
     0000000D  ___bank_scene_19                   scene_19
     0000000D  ___bank_scene_19_sprites           scene_19_sprites
     0000000D  ___bank_scene_19_triggers          scene_19_triggers
     0000000D  ___bank_scene_1_init               scene_1_init
     0000000D  ___bank_scene_1_triggers           scene_1_triggers
     0000000D  ___bank_scene_2                    scene_2
     0000000D  ___bank_scene_20                   scene_20
     0000000D  ___bank_scene_20_actors            scene_20_actors
     0000000D  ___bank_scene_20_init              scene_20_init
     0000000D  ___bank_scene_20_sprites           scene_20_sprites
     0000000D  ___bank_scene_20_triggers          scene_20_triggers
     0000000D  ___bank_scene_21                   scene_21
     0000000D  ___bank_scene_21_actors            scene_21_actors
     0000000D  ___bank_scene_21_init              scene_21_init
     0000000D  ___bank_scene_21_sprites           scene_21_sprites
     0000000D  ___bank_scene_21_triggers          scene_21_triggers
     0000000D  ___bank_scene_22                   scene_22
     0000000D  ___bank_scene_22_init              scene_22_init
     0000000D  ___bank_scene_22_sprites           scene_22_sprites
     0000000D  ___bank_scene_22_triggers          scene_22_triggers
     0000000D  ___bank_scene_3                    scene_3
     0000000D  ___bank_scene_3_init               scene_3_init
     0000000D  ___bank_scene_3_triggers           scene_3_triggers
     0000000D  ___bank_scene_4                    scene_4
     0000000D  ___bank_scene_4_init               scene_4_init
     0000000D  ___bank_scene_4_sprites            scene_4_sprites
     0000000D  ___bank_scene_4_triggers           scene_4_triggers
     0000000D  ___bank_scene_5                    scene_5
     0000000D  ___bank_scene_5_sprites            scene_5_sprites
     0000000D  ___bank_scene_5_triggers           scene_5_triggers
     0000000D  ___bank_scene_6                    scene_6
     0000000D  ___bank_scene_6_actors             scene_6_actors
     0000000D  ___bank_scene_6_init               scene_6_init
     0000000D  ___bank_scene_6_sprites            scene_6_sprites
     0000000D  ___bank_scene_7                    scene_7
     0000000D  ___bank_scene_7_sprites            scene_7_sprites
     0000000D  ___bank_scene_9                    scene_9
     0000000D  ___bank_scene_9_actors             scene_9_actors
     0000000D  ___bank_scene_9_init               scene_9_init
     0000000D  ___bank_scene_9_sprites            scene_9_sprites
     0000000D  ___bank_scene_9_triggers           scene_9_triggers
     0000000D  ___bank_script_12                  script_12
     0000000D  ___bank_script_7                   script_7
ASxxxx Linker V03.00/V05.40 + sdld,  page 15.
Hexadecimal  [32-Bits]

Area                                    Addr        Size        Decimal Bytes (Attributes)
--------------------------------        ----        ----        ------- ----- ------------
.  .ABS.                            00000000    00000000 =           0. bytes (ABS,CON)

      Value  Global                              Global Defined In Module
      -----  --------------------------------   ------------------------
     0000000D  ___bank_sound_sweetsounds_sfx_na   sound_sweetsounds_sfx_naked_
     0000000D  ___bank_sprite_biker               sprite_biker
     0000000D  ___bank_sprite_catnip              sprite_catnip
     0000000D  ___bank_sprite_catnip_tileset      sprite_catnip_tileset
     0000000D  ___bank_sprite_chest_tileset       sprite_chest_tileset
     0000000D  ___bank_sprite_pump                sprite_pump
     0000000D  ___bank_sprite_pump_tileset        sprite_pump_tileset
     0000000D  ___bank_sprite_sup_winnie          sprite_sup_winnie
     0000000D  ___bank_spritesheet_none           spritesheet_none
     0000000D  ___bank_trigger_0_interact         trigger_0_interact
     0000000D  ___bank_trigger_11_interact        trigger_11_interact
     0000000D  ___bank_trigger_12_interact        trigger_12_interact
     0000000D  ___bank_trigger_13_interact        trigger_13_interact
     0000000D  ___bank_trigger_14_interact        trigger_14_interact
     0000000D  ___bank_trigger_18_interact        trigger_18_interact
     0000000D  ___bank_trigger_1_interact         trigger_1_interact
     0000000D  ___bank_trigger_20_interact        trigger_20_interact
     0000000D  ___bank_trigger_21_interact        trigger_21_interact
     0000000D  ___bank_trigger_23_interact        trigger_23_interact
     0000000D  ___bank_trigger_24_interact        trigger_24_interact
     0000000D  ___bank_trigger_25_interact        trigger_25_interact
     0000000D  ___bank_trigger_2_interact         trigger_2_interact
     0000000D  ___bank_trigger_42_interact        trigger_42_interact
     0000000D  ___bank_trigger_43_interact        trigger_43_interact
     0000000D  ___bank_trigger_45_interact        trigger_45_interact
     0000000D  ___bank_trigger_46_interact        trigger_46_interact
     0000000D  ___bank_trigger_47_interact        trigger_47_interact
     0000000D  ___bank_trigger_48_interact        trigger_48_interact
     0000000D  ___bank_trigger_49_interact        trigger_49_interact
     0000000D  ___bank_trigger_4_interact         trigger_4_interact
     0000000D  ___bank_trigger_6_interact         trigger_6_interact
     0000000D  ___bank_trigger_7_interact         trigger_7_interact
     0000000D  ___bank_trigger_8_interact         trigger_8_interact
     0000000D  ___bank_trigger_9_interact         trigger_9_interact
     0000000D  b_SIO_init                         sio
     0000000D  b_camera_init                      camera
     0000000D  b_camera_reset                     camera
     0000000D  b_logo_init                        logo
     0000000D  b_logo_update                      logo
     0000000D  b_parallax_init                    parallax
     0000000D  b_remove_LCD_ISRs                  interrupts
     0000000D  b_scroll_rect                      
     0000001A  l__INITIALIZED                  
     0000001A  l__INITIALIZER                  
     0000002D  l__GSINIT                       
     00000030  l__HEADER7                      
     00000060  l__HEADER4                      
     000000AB  l__HEADER11                     
     000001CB  l__CRASH_SCRATCH2               
     00000200  s__CODE                         
     00000956  l__CODE                         
ASxxxx Linker V03.00/V05.40 + sdld,  page 16.
Hexadecimal  [32-Bits]

Area                                    Addr        Size        Decimal Bytes (Attributes)
--------------------------------        ----        ----        ------- ----- ------------
.  .ABS.                            00000000    00000000 =           0. bytes (ABS,CON)

      Value  Global                              Global Defined In Module
      -----  --------------------------------   ------------------------
     00000B56  s__HOME                         
     00001971  l__DATA                         
     00001C2A  l__CODE_13                      
     00002000  _rROMB0                            
     00002AAC  l__HOME                         
     00003000  _rROMB1                            
     00003602  s__BASE                         
     00003602  s__CODE_0                       
     00003602  s__INITIALIZER                  
     00003602  s__LIT                          
     0000361C  s__GSINIT                       
     00003649  s__GSFINAL                      
     00003FF3  l__CODE_1                       
     00003FFE  l__CODE_7                       
     00003FFF  l__CODE_11                      
     00003FFF  l__CODE_3                       
     00003FFF  l__CODE_8                       
     00004000  _RTC_SELECT_REG                    vm_rtc
     00004000  _rRAMB                             
     00004000  l__CODE_10                      
     00004000  l__CODE_12                      
     00004000  l__CODE_2                       
     00004000  l__CODE_4                       
     00004000  l__CODE_5                       
     00004000  l__CODE_6                       
     00004000  l__CODE_9                       
     00006000  _RTC_LATCH_REG                     vm_rtc
     00008000  __VRAM                             
     00008000  __VRAM8000                         
     00008800  __VRAM8800                         
     00009000  __VRAM9000                         
     00009800  __SCRN0                            
     00009C00  __SCRN1                            
     0000A000  _RTC_VALUE_REG                     vm_rtc
     0000A000  __SRAM                             
     0000C000  __RAM                              
     0000C000  _shadow_OAM                     
     0000C0A0  s__DATA                         
     0000D000  __RAMBANK                          
     0000DA11  s__BSS                          
     0000DA11  s__INITIALIZED                  
     0000DA2B  s__HEAP                         
     0000DA2B  s__HEAP_END                     
     0000DF00  .STACK                          
     0000DF00  _shadow_OAM2                       absolute
     0000DFA0  _BkgPalette                        absolute
     0000DFE0  _vwf_tile_data                     absolute
     0000FE00  __OAMRAM                           
     0000FF00  _P1_REG                            
     0000FF00  __IO                               
     0000FF01  _SB_REG                            
ASxxxx Linker V03.00/V05.40 + sdld,  page 17.
Hexadecimal  [32-Bits]

Area                                    Addr        Size        Decimal Bytes (Attributes)
--------------------------------        ----        ----        ------- ----- ------------
.  .ABS.                            00000000    00000000 =           0. bytes (ABS,CON)

      Value  Global                              Global Defined In Module
      -----  --------------------------------   ------------------------
     0000FF02  _SC_REG                            
     0000FF04  _DIV_REG                           
     0000FF05  _TIMA_REG                          
     0000FF06  _TMA_REG                           
     0000FF07  _TAC_REG                           
     0000FF0F  _IF_REG                            
     0000FF10  _NR10_REG                          
     0000FF11  _NR11_REG                          
     0000FF12  _NR12_REG                          
     0000FF13  _NR13_REG                          
     0000FF14  _NR14_REG                          
     0000FF16  _NR21_REG                          
     0000FF17  _NR22_REG                          
     0000FF18  _NR23_REG                          
     0000FF19  _NR24_REG                          
     0000FF1A  _NR30_REG                          
     0000FF1B  _NR31_REG                          
     0000FF1C  _NR32_REG                          
     0000FF1D  _NR33_REG                          
     0000FF1E  _NR34_REG                          
     0000FF20  _NR41_REG                          
     0000FF21  _NR42_REG                          
     0000FF22  _NR43_REG                          
     0000FF23  _NR44_REG                          
     0000FF24  _NR50_REG                          
     0000FF25  _NR51_REG                          
     0000FF26  _NR52_REG                          
     0000FF30  _AUD3WAVE                          
     0000FF30  _PCM_SAMPLE                        
     0000FF30  __AUD3WAVERAM                      
     0000FF40  _LCDC_REG                          
     0000FF41  _STAT_REG                          
     0000FF42  _SCY_REG                           
     0000FF43  _SCX_REG                           
     0000FF44  _LY_REG                            
     0000FF45  _LYC_REG                           
     0000FF46  _DMA_REG                           
     0000FF47  _BGP_REG                           
     0000FF48  _OBP0_REG                          
     0000FF49  _OBP1_REG                          
     0000FF4A  _WY_REG                            
     0000FF4B  _WX_REG                            
     0000FF4D  _KEY1_REG                          
     0000FF4F  _VBK_REG                           
     0000FF51  _HDMA1_REG                         
     0000FF52  _HDMA2_REG                         
     0000FF53  _HDMA3_REG                         
     0000FF54  _HDMA4_REG                         
     0000FF55  _HDMA5_REG                         
     0000FF56  _RP_REG                            
     0000FF68  _BCPS_REG                          
ASxxxx Linker V03.00/V05.40 + sdld,  page 18.
Hexadecimal  [32-Bits]

Area                                    Addr        Size        Decimal Bytes (Attributes)
--------------------------------        ----        ----        ------- ----- ------------
.  .ABS.                            00000000    00000000 =           0. bytes (ABS,CON)

      Value  Global                              Global Defined In Module
      -----  --------------------------------   ------------------------
     0000FF69  _BCPD_REG                          
     0000FF6A  _OCPS_REG                          
     0000FF6B  _OCPD_REG                          
     0000FF70  _SVBK_REG                          
     0000FF76  _PCM12_REG                         
     0000FF77  _PCM34_REG                         
     0000FF80  .refresh_OAM                    
     0000FF80  __HRAM                             
     0000FFFF  _IE_REG                            
     00014000  s__CODE_1                       
     00024000  s__CODE_2                       
     00034000  s__CODE_3                       
     00044000  s__CODE_4                       
     00054000  s__CODE_5                       
     00064000  s__CODE_6                       
     00074000  s__CODE_7                       
     00084000  s__CODE_8                       
     00094000  s__CODE_9                       
     000A4000  s__CODE_10                      
     000B4000  s__CODE_11                      
     000C4000  s__CODE_12                      
     000D4000  s__CODE_13                      
ASxxxx Linker V03.00/V05.40 + sdld,  page 19.
Hexadecimal  [32-Bits]

Area                                    Addr        Size        Decimal Bytes (Attributes)
--------------------------------        ----        ----        ------- ----- ------------
_CODE                               00000200    00000956 =        2390. bytes (REL,CON)

      Value  Global                              Global Defined In Module
      -----  --------------------------------   ------------------------
     00000200  ___HandleCrash                     
     0000020A  _SIO_send_byte                     
     0000021D  _SIO_receive                       
     0000022E  _GetWinAddr                        
     00000236  _GetBkgAddr                        
     00000244  _state_init                        
     00000249  _state_update                      
     0000026B  _ui_time_masks                     
     00000273  _ui_print_shift_char               
     000002F6  _ui_draw_frame_row                 
     000002FF  .ui_draw_frame_row                 
     00000328  _script_cmds                       vm_instructions
     00000560  _save_signature                    game_signature
     00000564  _start_scene_x                     
     00000566  _start_scene_y                     
     00000568  _start_scene_dir                   
     00000569  _start_scene                       
     0000056C  _start_player_move_speed           
     0000056D  _start_player_anim_tick            
     0000056E  _ui_fonts                          
     00000571  _core_reset_hook                   main
     00000579  _main                              main
     00000581  _state_start_fns                   
     00000593  _state_update_fns                  
     000005A5  _get_vram_byte                     
     000005AD  _get_win_tile_xy                   
     000005B5  _get_bkg_tile_xy                   
     000005DC  _set_sprite_palette                CGB
     000005E1  _set_bkg_palette                   CGB
     000005E4  .set_palette                       CGB
     00000603  _set_sprite_palette_entry          CGB
     00000608  _set_bkg_palette_entry             CGB
     0000060B  .set_palette_entry                 CGB
     00000644  gbt_get_pattern_ptr_banked         
     00000663  _gbt_play                          
     0000071E  _gbt_pause                         
     0000072F  _gbt_loop                          
     00000736  _gbt_stop                          
     00000741  _gbt_enable_channels               
     00000748  _gbt_update                        
     0000084D  _hide_sprites_range                Metasprites
     0000087C  __mulsuchar                        mul
     0000087F  __muluschar                        mul
     00000888  __mulschar                         mul
     00000890  __mulint                           mul
     000008AF  __muluchar                         mul
     000008C1  _set_vram_byte                     
     000008CA  _set_win_tile_xy                   
     000008D2  _set_bkg_tile_xy                   
     000008FC  .sgb_check                         
ASxxxx Linker V03.00/V05.40 + sdld,  page 20.
Hexadecimal  [32-Bits]

Area                                    Addr        Size        Decimal Bytes (Attributes)
--------------------------------        ----        ----        ------- ----- ------------
_CODE                               00000200    00000956 =        2390. bytes (REL,CON)

      Value  Global                              Global Defined In Module
      -----  --------------------------------   ------------------------
     000008FC  _sgb_check                         
     00000944  _sgb_transfer                      
     00000949  .sgb_transfer                      
     0000098A  .copy_vram                         
     00000990  _get_data                          
     00000990  _set_data                          
     00000990  _vmemcpy                           
     000009DE  ___move_metasprite                 Metasprites
     00000A1B  ___memcpy                          
     00000A1B  _memcpy                            
     00000A4D  _cpu_slow                          CGB
     00000A68  _cpu_fast                          CGB
     00000A6F  __divsuchar                        divmod
     00000A75  __modsuchar                        divmod
     00000A7E  __divuschar                        divmod
     00000A87  __moduschar                        divmod
     00000A93  __divschar                         divmod
     00000A98  __modschar                         divmod
     00000A9F  __divsint                          divmod
     00000AA8  __modsint                          divmod
     00000AB4  __divuchar                         divmod
     00000AB9  __moduchar                         divmod
     00000AC0  __divuint                          divmod
     00000AC9  __moduint                          divmod
     00000AD5  .div8                              divmod
     00000AD5  .mod8                              divmod
     00000ADD  .div16                             divmod
     00000ADD  .mod16                             divmod
     00000B13  .divu8                             divmod
     00000B13  .modu8                             divmod
     00000B16  .divu16                            divmod
     00000B16  .modu16                            divmod

ASxxxx Linker V03.00/V05.40 + sdld,  page 21.
Hexadecimal  [32-Bits]

Area                                    Addr        Size        Decimal Bytes (Attributes)
--------------------------------        ----        ----        ------- ----- ------------
_HEADER0                            00000000    00000001 =           1. bytes (ABS,CON)

      Value  Global                              Global Defined In Module
      -----  --------------------------------   ------------------------
     00000020  .call_hl                           Runtime

ASxxxx Linker V03.00/V05.40 + sdld,  page 22.
Hexadecimal  [32-Bits]

Area                                    Addr        Size        Decimal Bytes (Attributes)
--------------------------------        ----        ----        ------- ----- ------------
_HEADER1                            00000000    00000005 =           5. bytes (ABS,CON)

      Value  Global                              Global Defined In Module
      -----  --------------------------------   ------------------------
     00000028  .MemsetSmall                       Runtime

ASxxxx Linker V03.00/V05.40 + sdld,  page 23.
Hexadecimal  [32-Bits]

Area                                    Addr        Size        Decimal Bytes (Attributes)
--------------------------------        ----        ----        ------- ----- ------------
_HEADER2                            00000000    00000007 =           7. bytes (ABS,CON)

      Value  Global                              Global Defined In Module
      -----  --------------------------------   ------------------------
     00000030  .MemcpySmall                       Runtime

ASxxxx Linker V03.00/V05.40 + sdld,  page 24.
Hexadecimal  [32-Bits]

Area                                    Addr        Size        Decimal Bytes (Attributes)
--------------------------------        ----        ----        ------- ----- ------------
_HEADER3                            00000000    00000008 =           8. bytes (ABS,CON)

      Value  Global                              Global Defined In Module
      -----  --------------------------------   ------------------------
ASxxxx Linker V03.00/V05.40 + sdld,  page 25.
Hexadecimal  [32-Bits]

Area                                    Addr        Size        Decimal Bytes (Attributes)
--------------------------------        ----        ----        ------- ----- ------------
_HEADER4                            00000000    00000060 =          96. bytes (ABS,CON)

      Value  Global                              Global Defined In Module
      -----  --------------------------------   ------------------------
     00000080  .int                               Runtime
     0000008F  _wait_int_handler                  Runtime
     0000009C  __standard_VBL_handler             Runtime
     000000AB  _refresh_OAM                       Runtime
     000000CC  _set_interrupts                    Runtime

ASxxxx Linker V03.00/V05.40 + sdld,  page 26.
Hexadecimal  [32-Bits]

Area                                    Addr        Size        Decimal Bytes (Attributes)
--------------------------------        ----        ----        ------- ----- ------------
_HEADER5                            00000000    00000001 =           1. bytes (ABS,CON)

      Value  Global                              Global Defined In Module
      -----  --------------------------------   ------------------------
ASxxxx Linker V03.00/V05.40 + sdld,  page 27.
Hexadecimal  [32-Bits]

Area                                    Addr        Size        Decimal Bytes (Attributes)
--------------------------------        ----        ----        ------- ----- ------------
_HEADER6                            00000000    00000002 =           2. bytes (ABS,CON)

      Value  Global                              Global Defined In Module
      -----  --------------------------------   ------------------------
ASxxxx Linker V03.00/V05.40 + sdld,  page 28.
Hexadecimal  [32-Bits]

Area                                    Addr        Size        Decimal Bytes (Attributes)
--------------------------------        ----        ----        ------- ----- ------------
_HEADER7                            00000000    00000030 =          48. bytes (ABS,CON)

      Value  Global                              Global Defined In Module
      -----  --------------------------------   ------------------------
ASxxxx Linker V03.00/V05.40 + sdld,  page 29.
Hexadecimal  [32-Bits]

Area                                    Addr        Size        Decimal Bytes (Attributes)
--------------------------------        ----        ----        ------- ----- ------------
_HEADER8                            00000000    00000006 =           6. bytes (ABS,CON)

      Value  Global                              Global Defined In Module
      -----  --------------------------------   ------------------------
ASxxxx Linker V03.00/V05.40 + sdld,  page 30.
Hexadecimal  [32-Bits]

Area                                    Addr        Size        Decimal Bytes (Attributes)
--------------------------------        ----        ----        ------- ----- ------------
_HEADER9                            00000000    00000003 =           3. bytes (ABS,CON)

      Value  Global                              Global Defined In Module
      -----  --------------------------------   ------------------------
ASxxxx Linker V03.00/V05.40 + sdld,  page 31.
Hexadecimal  [32-Bits]

Area                                    Addr        Size        Decimal Bytes (Attributes)
--------------------------------        ----        ----        ------- ----- ------------
_HEADERa                            00000000    00000001 =           1. bytes (ABS,CON)

      Value  Global                              Global Defined In Module
      -----  --------------------------------   ------------------------
ASxxxx Linker V03.00/V05.40 + sdld,  page 32.
Hexadecimal  [32-Bits]

Area                                    Addr        Size        Decimal Bytes (Attributes)
--------------------------------        ----        ----        ------- ----- ------------
_HEADERb                            00000000    00000001 =           1. bytes (ABS,CON)

      Value  Global                              Global Defined In Module
      -----  --------------------------------   ------------------------
ASxxxx Linker V03.00/V05.40 + sdld,  page 33.
Hexadecimal  [32-Bits]

Area                                    Addr        Size        Decimal Bytes (Attributes)
--------------------------------        ----        ----        ------- ----- ------------
_HEADERc                            00000000    00000001 =           1. bytes (ABS,CON)

      Value  Global                              Global Defined In Module
      -----  --------------------------------   ------------------------
ASxxxx Linker V03.00/V05.40 + sdld,  page 34.
Hexadecimal  [32-Bits]

Area                                    Addr        Size        Decimal Bytes (Attributes)
--------------------------------        ----        ----        ------- ----- ------------
_HEADERd                            00000000    00000002 =           2. bytes (ABS,CON)

      Value  Global                              Global Defined In Module
      -----  --------------------------------   ------------------------
ASxxxx Linker V03.00/V05.40 + sdld,  page 35.
Hexadecimal  [32-Bits]

Area                                    Addr        Size        Decimal Bytes (Attributes)
--------------------------------        ----        ----        ------- ----- ------------
_HEADERe                            00000000    00000001 =           1. bytes (ABS,CON)

      Value  Global                              Global Defined In Module
      -----  --------------------------------   ------------------------
ASxxxx Linker V03.00/V05.40 + sdld,  page 36.
Hexadecimal  [32-Bits]

Area                                    Addr        Size        Decimal Bytes (Attributes)
--------------------------------        ----        ----        ------- ----- ------------
_HEADERf                            00000000    00000001 =           1. bytes (ABS,CON)

      Value  Global                              Global Defined In Module
      -----  --------------------------------   ------------------------
ASxxxx Linker V03.00/V05.40 + sdld,  page 37.
Hexadecimal  [32-Bits]

Area                                    Addr        Size        Decimal Bytes (Attributes)
--------------------------------        ----        ----        ------- ----- ------------
_HEADER10                           00000000    00000002 =           2. bytes (ABS,CON)

      Value  Global                              Global Defined In Module
      -----  --------------------------------   ------------------------
ASxxxx Linker V03.00/V05.40 + sdld,  page 38.
Hexadecimal  [32-Bits]

Area                                    Addr        Size        Decimal Bytes (Attributes)
--------------------------------        ----        ----        ------- ----- ------------
_HEADER11                           00000000    000000AB =         171. bytes (ABS,CON)

      Value  Global                              Global Defined In Module
      -----  --------------------------------   ------------------------
     00000150  .reset                             Runtime
     00000150  _reset                             Runtime
     00000157  .code_start                        Runtime
     000001B9  _exit                              Runtime
     000001BD  .wait_vbl_done                     Runtime
     000001BD  _vsync                             Runtime
     000001BD  _wait_vbl_done                     Runtime
     000001CD  .remove_VBL                        Runtime
     000001CD  _remove_VBL                        Runtime
     000001D0  .remove_int                        Runtime
     000001ED  .add_VBL                           Runtime
     000001ED  _add_VBL                           Runtime
     000001F0  .add_int                           Runtime

ASxxxx Linker V03.00/V05.40 + sdld,  page 39.
Hexadecimal  [32-Bits]

Area                                    Addr        Size        Decimal Bytes (Attributes)
--------------------------------        ----        ----        ------- ----- ------------
_HOME                               00000B56    00002AAC =       10924. bytes (REL,CON)

      Value  Global                              Global Defined In Module
      -----  --------------------------------   ------------------------
     00000B56  .memset_simple                     Runtime
     00000B5F  .memcpy_simple                     Runtime
     00000B7C  .display_off                       Runtime
     00000B7C  _display_off                       Runtime
     00000B94  _actors_update                     actor
     00000F93  _SetBankedBkgData                  bankdata
     00000FAF  _SetBankedSpriteData               bankdata
     00000FCB  _SetBankedBkgTiles                 bankdata
     00000FE7  _SetBankedWinTiles                 bankdata
     00001003  _ReadBankedFarPtr                  bankdata
     00001025  _ReadBankedUWORD                   bankdata
     0000103F  _MemcpyBanked                      bankdata
     00001061  _MemcpyVRAMBanked                  bankdata
     00001090  _IndexOfFarPtr                     bankdata
     00001115  _camera_update                     camera
     00001248  _load_animations                   data_manager
     000012A1  _events_update                     events
     00001374  _timers_update                     events
     000013FD  _input_update                      input
     00001420  .sio_ISR                           
     0000147A  .timer_ISR                         
     0000148F  _simple_LCD_isr                    interrupts
     0000150E  _fullscreen_LCD_isr                interrupts
     0000153A  _VBL_isr                           interrupts
     00001584  _isqrt                             math
     000015E1  _sine_wave                         math
     000016E1  _dir_lookup                        math
     000016E9  _dir_angle_lookup                  math
     000016ED  _music_events_update               music_manager
     0000176F  _music_play_isr                    music_manager
     0000183D  _parallax_LCD_isr                  parallax
     0000187A  _projectiles_update                projectiles
     00001CFB  _projectiles_render                projectiles
     00001E50  _scroll_load_pending_row           scroll
     00001ED6  _scroll_load_row                   scroll
     00001F4B  _scroll_load_col                   scroll
     00001FB4  _scroll_load_pending_col           scroll
     0000203C  _set_bkg_submap                    
     0000207F  _set_xy_win_submap                 
     000020AC  .set_xy_win_submap                 
     000020B5  .set_xy_bkg_submap                 
     000020C4  .set_xy_submap                     
     0000210E  _sfx_play_isr                      sfx_player
     000021E7  _on_SIO_receive                    sio
     00002226  _SIO_update                        sio
     0000228A  _ui_update                         ui
     000023C2  _vm_sgb_transfer                   vm_sgb
     0000240F  _vm_load_text                      vm_ui
     00002665  _vm_switch                         vm
     00002796  _vm_beginthread                    vm
ASxxxx Linker V03.00/V05.40 + sdld,  page 40.
Hexadecimal  [32-Bits]

Area                                    Addr        Size        Decimal Bytes (Attributes)
--------------------------------        ----        ----        ------- ----- ------------
_HOME                               00000B56    00002AAC =       10924. bytes (REL,CON)

      Value  Global                              Global Defined In Module
      -----  --------------------------------   ------------------------
     000028BA  _vm_rpn                            vm
     00003093  _vm_get_far                        vm
     00003101  _vm_call_native                    vm
     00003114  _VM_STEP                           vm
     0000317E  _script_runner_update              vm
     000032E3  _fill_win_rect                     
     000032F5  _rand                              
     000032F5  _randw                             
     00003320  _initrand                          
     00003322  .initrand                          
     0000332B  _get_bkg_data                      
     0000332B  _get_win_data                      
     00003378  _get_sprite_data                   
     000033AB  _abs                               abs
     000033BA  _set_win_tiles                     
     000033CE  _set_tile_data                     
     000033D3  _set_bkg_data                      
     000033D3  _set_win_data                      
     000033DB  _set_sprite_data                   
     0000340B  _reverse                           reverse
     0000343F  ___call__banked                    far_ptr
     0000345C  _to_far_ptr                        far_ptr
     00003492  .add_LCD                           
     00003492  _add_LCD                           
     00003498  .remove_LCD                        
     00003498  _remove_LCD                        
     0000349E  .fill_rect_wtt                     
     000034A7  .fill_rect_btt                     
     000034F4  _fill_bkg_rect                     
     00003506  .padup                             
     00003506  _waitpadup                         
     00003516  .jpad                              
     00003516  _joypad                            
     0000353E  _waitpad                           
     0000353F  .wait_pad                          
     00003546  ___sdcc_call_hl                    call_hl
     00003547  _memset                            memset
     0000357A  .set_xy_wtt                        SetTileMap
     00003583  .set_xy_btt                        SetTileMap
     00003592  .set_xy_tt                         SetTileMap
     000035D4  ___sdcc_bcall_ehl                  
     000035EE  _set_bkg_tiles                     

ASxxxx Linker V03.00/V05.40 + sdld,  page 41.
Hexadecimal  [32-Bits]

Area                                    Addr        Size        Decimal Bytes (Attributes)
--------------------------------        ----        ----        ------- ----- ------------
_INITIALIZER                        00003602    0000001A =          26. bytes (REL,CON)

      Value  Global                              Global Defined In Module
      -----  --------------------------------   ------------------------
ASxxxx Linker V03.00/V05.40 + sdld,  page 42.
Hexadecimal  [32-Bits]

Area                                    Addr        Size        Decimal Bytes (Attributes)
--------------------------------        ----        ----        ------- ----- ------------
_GSINIT                             0000361C    0000002D =          45. bytes (REL,CON)

      Value  Global                              Global Defined In Module
      -----  --------------------------------   ------------------------
     0000361C  gsinit                             Runtime

ASxxxx Linker V03.00/V05.40 + sdld,  page 43.
Hexadecimal  [32-Bits]

Area                                    Addr        Size        Decimal Bytes (Attributes)
--------------------------------        ----        ----        ------- ----- ------------
_GSFINAL                            00003649    00000001 =           1. bytes (REL,CON)

      Value  Global                              Global Defined In Module
      -----  --------------------------------   ------------------------
ASxxxx Linker V03.00/V05.40 + sdld,  page 44.
Hexadecimal  [32-Bits]

Area                                    Addr        Size        Decimal Bytes (Attributes)
--------------------------------        ----        ----        ------- ----- ------------
_DATA                               0000C0A0    00001971 =        6513. bytes (REL,CON)

      Value  Global                              Global Defined In Module
      -----  --------------------------------   ------------------------
     0000C0A0  __cpu                              Runtime
     0000C0A1  __is_GBA                           Runtime
     0000C0A2  .mode                              Runtime
     0000C0A3  .sys_time                          Runtime
     0000C0A3  _sys_time                          Runtime
     0000C0A5  .int_0x40                          Runtime
     0000C0B1  _actors                            actor
     0000C4F5  _actors_active_head                actor
     0000C4F7  _actors_active_tail                actor
     0000C4F9  _actors_inactive_head              actor
     0000C4FB  _screen_x                          actor
     0000C4FC  _screen_y                          actor
     0000C4FD  _invalid                           actor
     0000C4FF  _player_moving                     actor
     0000C500  _player_iframes                    actor
     0000C501  _player_collision_actor            actor
     0000C503  _emote_actor                       actor
     0000C505  _emote_timer                       actor
     0000C506  _allocated_sprite_tiles            actor
     0000C507  _allocated_hardware_sprites        actor
     0000C513  _camera_x                          camera
     0000C515  _camera_y                          camera
     0000C517  _camera_offset_x                   camera
     0000C518  _camera_offset_y                   camera
     0000C519  _camera_deadzone_x                 camera
     0000C51A  _camera_deadzone_y                 camera
     0000C51B  _camera_settings                   camera
     0000C51F  _current_scene                     data_manager
     0000C522  _image_bank                        data_manager
     0000C523  _image_ptr                         data_manager
     0000C525  _image_attr_bank                   data_manager
     0000C526  _image_attr_ptr                    data_manager
     0000C528  _collision_bank                    data_manager
     0000C529  _collision_ptr                     data_manager
     0000C52B  _image_tile_width                  data_manager
     0000C52C  _image_tile_height                 data_manager
     0000C52D  _image_width                       data_manager
     0000C52F  _image_height                      data_manager
     0000C531  _sprites_len                       data_manager
     0000C532  _actors_len                        data_manager
     0000C533  _projectiles_len                   data_manager
     0000C534  _player_sprite_len                 data_manager
     0000C535  _scene_type                        data_manager
     0000C536  _scene_LCD_type                    data_manager
     0000C537  _scene_stack                       data_manager
     0000C577  _scene_stack_ptr                   data_manager
     0000C579  _scene_sprites_base_tiles          data_manager
     0000C5B9  _input_events                      events
     0000C5E1  _input_slots                       events
     0000C5E9  _timer_events                      events
ASxxxx Linker V03.00/V05.40 + sdld,  page 45.
Hexadecimal  [32-Bits]

Area                                    Addr        Size        Decimal Bytes (Attributes)
--------------------------------        ----        ----        ------- ----- ------------
_DATA                               0000C0A0    00001971 =        6513. bytes (REL,CON)

      Value  Global                              Global Defined In Module
      -----  --------------------------------   ------------------------
     0000C5FD  _timer_values                      events
     0000C605  _fade_running                      fade_manager
     0000C606  _fade_frames_per_step              fade_manager
     0000C607  _fade_timer                        fade_manager
     0000C60F  _joypads                           input
     0000C614  _frame_joy                         input
     0000C615  _last_joy                          input
     0000C616  _recent_joy                        input
     0000C617  _SIO_status                        
     0000C618  _link_byte_sent                    
     0000C619  _link_next_mode                    
     0000C61A  _save_blob_size                    load_save
     0000C61C  _routine_queue                     music_manager
     0000C620  _routine_queue_head                music_manager
     0000C621  _routine_queue_tail                music_manager
     0000C622  _music_events                      music_manager
     0000C636  _music_current_track_bank          music_manager
     0000C637  _music_mute_mask                   music_manager
     0000C638  _music_effective_mute              music_manager
     0000C639  _music_next_track                  music_manager
     0000C63B  _music_current_track               music_manager
     0000C63D  _music_play_isr_counter            music_manager
     0000C63E  _music_play_isr_pause              music_manager
     0000C63F  _music_global_mute_mask            music_manager
     0000C640  _music_sfx_priority                music_manager
     0000C641  _DMG_palette                       palette
     0000C644  _SprPalette                        palette
     0000C684  _parallax_rows                     parallax
     0000C696  _parallax_row                      parallax
     0000C698  _projectiles                       projectiles
     0000C751  _projectile_defs                   projectiles
     0000C7C4  _projectiles_active_head           projectiles
     0000C7C6  _projectiles_inactive_head         projectiles
     0000C7CD  _scroll_x                          scroll
     0000C7CF  _scroll_y                          scroll
     0000C7D1  _draw_scroll_x                     scroll
     0000C7D3  _draw_scroll_y                     scroll
     0000C7D5  _scroll_x_max                      scroll
     0000C7D7  _scroll_y_max                      scroll
     0000C7D9  _scroll_offset_x                   scroll
     0000C7DA  _scroll_offset_y                   scroll
     0000C7DB  _pending_h_x                       scroll
     0000C7DC  _pending_h_y                       scroll
     0000C7DD  _pending_h_i                       scroll
     0000C7DE  _pending_w_x                       scroll
     0000C7DF  _pending_w_y                       scroll
     0000C7E0  _pending_w_i                       scroll
     0000C7E1  _current_row                       scroll
     0000C7E3  _new_row                           scroll
     0000C7E5  _current_col                       scroll
     0000C7E7  _new_col                           scroll
ASxxxx Linker V03.00/V05.40 + sdld,  page 46.
Hexadecimal  [32-Bits]

Area                                    Addr        Size        Decimal Bytes (Attributes)
--------------------------------        ----        ----        ------- ----- ------------
_DATA                               0000C0A0    00001971 =        6513. bytes (REL,CON)

      Value  Global                              Global Defined In Module
      -----  --------------------------------   ------------------------
     0000C7E9  .image_tile_width                  
     0000C7EA  _sfx_play_bank                     sfx_player
     0000C7EB  _sfx_play_sample                   sfx_player
     0000C7ED  _sfx_frame_skip                    sfx_player
     0000C7EE  _link_operation_mode               sio
     0000C7EF  _link_packet                       sio
     0000C80F  _link_packet_len                   sio
     0000C810  _link_packet_ptr                   sio
     0000C812  _link_packet_received              sio
     0000C813  _link_packet_snd_len               sio
     0000C814  _link_packet_snd_ptr               sio
     0000C816  _link_packet_sent                  sio
     0000C817  __is_CGB                           system
     0000C818  __is_SGB                           system
     0000C819  __current_ram_bank                 system
     0000C81A  _triggers                          trigger
     0000C912  _last_trigger_tx                   trigger
     0000C913  _last_trigger_ty                   trigger
     0000C914  _last_trigger                      trigger
     0000C915  _win_pos_x                         ui
     0000C916  _win_dest_pos_x                    ui
     0000C917  _win_pos_y                         ui
     0000C918  _win_dest_pos_y                    ui
     0000C919  _win_speed                         ui
     0000C91A  _text_drawn                        ui
     0000C91B  _current_text_speed                ui
     0000C91C  _text_wait                         ui
     0000C91D  _text_options                      ui
     0000C91E  _text_in_speed                     ui
     0000C91F  _text_out_speed                    ui
     0000C920  _text_draw_speed                   ui
     0000C921  _text_ff_joypad                    ui
     0000C922  _text_ff                           ui
     0000C923  _text_bkg_fill                     ui
     0000C924  _ui_text_data                      ui
     0000CA2E  _vwf_current_mask                  ui
     0000CA2F  _vwf_current_rotate                ui
     0000CA30  _vwf_inverse_map                   ui
     0000CA31  _vwf_direction                     ui
     0000CA32  _vwf_current_font_desc             ui
     0000CA3A  _vwf_current_font_bank             ui
     0000CA3B  _vwf_current_font_idx              ui
     0000CA3C  _text_render_base_addr             ui
     0000CA3E  _text_scroll_addr                  ui
     0000CA40  _text_scroll_width                 ui
     0000CA41  _text_scroll_height                ui
     0000CA42  _text_scroll_fill                  ui
     0000CA43  _text_sound_mask                   ui
     0000CA44  _text_sound_bank                   ui
     0000CA45  _text_sound_data                   ui
     0000CA47  _overlay_priority                  ui
ASxxxx Linker V03.00/V05.40 + sdld,  page 47.
Hexadecimal  [32-Bits]

Area                                    Addr        Size        Decimal Bytes (Attributes)
--------------------------------        ----        ----        ------- ----- ------------
_DATA                               0000C0A0    00001971 =        6513. bytes (REL,CON)

      Value  Global                              Global Defined In Module
      -----  --------------------------------   ------------------------
     0000CA48  _text_palette                      ui
     0000CA4F  __itoa_fmt_len                     vm_ui_a
     0000CA50  .itoa_fmt_buf                      vm_ui_a
     0000CA53  _CTXS                              vm
     0000CB83  _first_ctx                         vm
     0000CB85  _free_ctxs                         vm
     0000CB87  _old_executing_ctx                 vm
     0000CB89  _executing_ctx                     vm
     0000CB8B  _vm_lock_state                     vm
     0000CB8C  _vm_loaded_state                   vm
     0000CB8D  _vm_exception_code                 vm
     0000CB8E  _vm_exception_params_length        vm
     0000CB8F  _vm_exception_params_bank          vm
     0000CB90  _vm_exception_params_offset        vm
     0000CB93  _script_memory                     vm
     0000D999  _grounded                          platform
     0000D99A  _on_slope                          platform
     0000D99B  _slope_y                           platform
     0000D99C  _on_ladder                         platform
     0000D99D  _pl_vel_x                          platform
     0000D99F  _pl_vel_y                          platform
     0000D9A1  _plat_min_vel                      platform
     0000D9A3  _plat_walk_vel                     platform
     0000D9A5  _plat_climb_vel                    platform
     0000D9A7  _plat_run_vel                      platform
     0000D9A9  _plat_walk_acc                     platform
     0000D9AB  _plat_run_acc                      platform
     0000D9AD  _plat_dec                          platform
     0000D9AF  _plat_jump_vel                     platform
     0000D9B1  _plat_grav                         platform
     0000D9B3  _plat_hold_grav                    platform
     0000D9B5  _plat_max_fall_vel                 platform
     0000D9B7  _shooter_reached_end               shmup
     0000D9B8  _shooter_dest                      shmup
     0000D9BA  _shooter_direction                 shmup
     0000D9BB  _topdown_grid                      topdown
     0000D9BC  ___rand_seed                       
     0000D9BE  gbt_playing                        
     0000D9BF  gbt_song                           
     0000D9C1  gbt_bank                           
     0000D9C2  gbt_speed                          
     0000D9C3  gbt_temp_play_data                 
     0000D9CF  gbt_loop_enabled                   
     0000D9D0  gbt_ticks_elapsed                  
     0000D9D1  gbt_current_step                   
     0000D9D2  gbt_current_pattern                
     0000D9D3  gbt_current_step_data_ptr          
     0000D9D5  gbt_channels_enabled               
     0000D9D6  gbt_pan                            
     0000D9DA  gbt_vol                            
     0000D9DE  gbt_instr                          
ASxxxx Linker V03.00/V05.40 + sdld,  page 48.
Hexadecimal  [32-Bits]

Area                                    Addr        Size        Decimal Bytes (Attributes)
--------------------------------        ----        ----        ------- ----- ------------
_DATA                               0000C0A0    00001971 =        6513. bytes (REL,CON)

      Value  Global                              Global Defined In Module
      -----  --------------------------------   ------------------------
     0000D9E2  gbt_freq                           
     0000D9E8  __current_ch3_wave                 
     0000D9E8  __gbt_channel3_loaded_instrument   
     0000D9E8  gbt_channel3_loaded_instrument     
     0000D9E9  gbt_arpeggio_freq_index            
     0000D9F2  gbt_arpeggio_enabled               
     0000D9F5  gbt_arpeggio_tick                  
     0000D9F8  gbt_sweep                          
     0000D9FB  gbt_cut_note_tick                  
     0000D9FF  gbt_have_to_stop_next_step         
     0000DA00  gbt_update_pattern_pointers        
     0000DA01  ___call_banked_addr                far_ptr
     0000DA01  ___call_banked_ptr                 far_ptr
     0000DA03  ___call_banked_bank                far_ptr
     0000DA05  .int_0x48                          
     0000DA0D  ___current_metasprite              Metasprites
     0000DA0F  ___current_base_tile               Metasprites
     0000DA10  ___current_base_prop               Metasprites

ASxxxx Linker V03.00/V05.40 + sdld,  page 49.
Hexadecimal  [32-Bits]

Area                                    Addr        Size        Decimal Bytes (Attributes)
--------------------------------        ----        ----        ------- ----- ------------
_INITIALIZED                        0000DA11    0000001A =          26. bytes (REL,CON)

      Value  Global                              Global Defined In Module
      -----  --------------------------------   ------------------------
     0000DA11  _fade_style                        fade_manager
     0000DA12  _game_time                         game_time
     0000DA13  _PRN_PKT_START                     gbprinter
     0000DA21  _hide_sprites                      interrupts
     0000DA22  _show_actors_on_overlay            interrupts
     0000DA23  _overlay_cut_scanline              interrupts
     0000DA24  __submap_tile_offset               
     0000DA25  _triggers_len                      trigger
     0000DA26  _exchange_state                    vm_sio
     0000DA27  _last_hit_trigger                  pointnclick
     0000DA28  _shooter_scroll_speed              shmup
     0000DA29  ___render_shadow_OAM               Metasprites
     0000DA2A  __map_tile_offset                  SetTileMap

ASxxxx Linker V03.00/V05.40 + sdld,  page 50.
Hexadecimal  [32-Bits]

Area                                    Addr        Size        Decimal Bytes (Attributes)
--------------------------------        ----        ----        ------- ----- ------------
_HRAM12                             00000000    00000003 =           3. bytes (ABS,CON)

      Value  Global                              Global Defined In Module
      -----  --------------------------------   ------------------------
     0000FF90  __current_bank                     Runtime
     0000FF92  __shadow_OAM_base                  Runtime

ASxxxx Linker V03.00/V05.40 + sdld,  page 51.
Hexadecimal  [32-Bits]

Area                                    Addr        Size        Decimal Bytes (Attributes)
--------------------------------        ----        ----        ------- ----- ------------
_CODE_4                             00044000    00004000 =       16384. bytes (REL,CON)

      Value  Global                              Global Defined In Module
      -----  --------------------------------   ------------------------
     00044000  ___func_ACTOR                      actor
     00044000  _actors_init                       actor
     0004403A  _emote_offsets                     actor
     00044049  _emote_metasprite                  actor
     00044055  _player_init                       actor
     0004406A  _deactivate_actor                  actor
     000441CB  _activate_actor                    actor
     0004430A  _activate_actors_in_row            actor
     00044401  _activate_actors_in_col            actor
     00044552  _actor_set_frames                  actor
     000445A8  _actor_set_frame_offset            actor
     000445E3  _actor_get_frame_offset            actor
     000445F5  _actor_set_anim_idle               actor
     00044623  _actor_set_anim_moving             actor
     00044654  _actor_set_dir                     actor
     000446B9  _actor_at_tile                     actor
     0004478D  _actor_in_front_of_player          actor
     00044841  _actor_overlapping_player          actor
     00044ADA  _actor_overlapping_bb              actor
     00044CF9  _actors_handle_player_collision    actor
     00044D85  _check_collision_in_direction      actor
     0004560B  _save_sram_banks                   
     00045693  _erase_flash                       
     000456A9  _actor_43_interact                 actor_43_interact
     000456B7  ___func_font_gbs_variable_width    font_gbs_variable_width
     00046532  _font_gbs_variable_width           font_gbs_variable_width
     0004653A  _scene_19_init                     scene_19_init
     000472AB  _trigger_5_interact                trigger_5_interact

ASxxxx Linker V03.00/V05.40 + sdld,  page 52.
Hexadecimal  [32-Bits]

Area                                    Addr        Size        Decimal Bytes (Attributes)
--------------------------------        ----        ----        ------- ----- ------------
_CODE_13                            000D4000    00001C2A =        7210. bytes (REL,CON)

      Value  Global                              Global Defined In Module
      -----  --------------------------------   ------------------------
     000D4000  _bootstrap_script                  
     000D400B  _camera_init                       camera
     000D4029  _camera_reset                      camera
     000D4039  _remove_LCD_ISRs                   interrupts
     000D4054  _parallax_init                     parallax
     000D4074  _scroll_rect                       
     000D40B1  _SIO_init                          sio
     000D40DA  _actor_10_update                   actor_10_update
     000D411B  _actor_12_update                   actor_12_update
     000D4134  _actor_30_update                   actor_30_update
     000D4175  _actor_31_update                   actor_31_update
     000D41B6  _actor_33_update                   actor_33_update
     000D41F7  _actor_49_interact                 actor_49_interact
     000D422E  _actor_49_update                   actor_49_update
     000D4263  _actor_50_interact                 actor_50_interact
     000D429A  _actor_50_update                   actor_50_update
     000D42CF  _actor_51_interact                 actor_51_interact
     000D4306  _actor_51_update                   actor_51_update
     000D433B  _actor_53_interact                 actor_53_interact
     000D4372  _actor_53_update                   actor_53_update
     000D43A7  _actor_54_interact                 actor_54_interact
     000D43DE  _actor_54_update                   actor_54_update
     000D4413  _actor_55_interact                 actor_55_interact
     000D444A  _actor_55_update                   actor_55_update
     000D447F  _actor_56_interact                 actor_56_interact
     000D44B6  _actor_56_update                   actor_56_update
     000D44EB  _actor_57_interact                 actor_57_interact
     000D4522  _actor_57_update                   actor_57_update
     000D4557  _actor_59_interact                 actor_59_interact
     000D458E  _actor_59_update                   actor_59_update
     000D45C3  _actor_61_interact                 actor_61_interact
     000D45FA  _actor_61_update                   actor_61_update
     000D462F  _actor_65_interact                 actor_65_interact
     000D466F  ___func_bg_catfight2               bg_catfight2
     000D466F  _bg_catfight2                      bg_catfight2
     000D467D  ___func_bg_fischteich_big          bg_fischteich_big
     000D467D  _bg_fischteich_big                 bg_fischteich_big
     000D468B  ___func_bg_glueckwuensche_1        bg_glueckwuensche_1
     000D468B  _bg_glueckwuensche_1               bg_glueckwuensche_1
     000D4699  ___func_bg_glueckwuensche_2        bg_glueckwuensche_2
     000D4699  _bg_glueckwuensche_2               bg_glueckwuensche_2
     000D46A7  ___func_bg_glueckwuensche_3        bg_glueckwuensche_3
     000D46A7  _bg_glueckwuensche_3               bg_glueckwuensche_3
     000D46B5  ___func_bg_huette                  bg_huette
     000D46B5  _bg_huette                         bg_huette
     000D46C3  ___func_bg_prolog_mb_bad           bg_prolog_mb_bad
     000D46C3  _bg_prolog_mb_bad                  bg_prolog_mb_bad
     000D46D1  ___func_bg_prolog_mb_schlafzimme   bg_prolog_mb_schlafzimmer
     000D46D1  _bg_prolog_mb_schlafzimmer         bg_prolog_mb_schlafzimmer
     000D46DF  ___func_bg_prolog_mb_vorraum       bg_prolog_mb_vorraum
ASxxxx Linker V03.00/V05.40 + sdld,  page 53.
Hexadecimal  [32-Bits]

Area                                    Addr        Size        Decimal Bytes (Attributes)
--------------------------------        ----        ----        ------- ----- ------------
_CODE_13                            000D4000    00001C2A =        7210. bytes (REL,CON)

      Value  Global                              Global Defined In Module
      -----  --------------------------------   ------------------------
     000D46DF  _bg_prolog_mb_vorraum              bg_prolog_mb_vorraum
     000D46ED  ___func_bg_prolog_mb_wohnzimmer    bg_prolog_mb_wohnzimmer
     000D46ED  _bg_prolog_mb_wohnzimmer           bg_prolog_mb_wohnzimmer
     000D46FB  ___func_bg_prolog_stiege           bg_prolog_stiege
     000D46FB  _bg_prolog_stiege                  bg_prolog_stiege
     000D4709  ___func_bg_prolog_tv_buero         bg_prolog_tv_buero
     000D4709  _bg_prolog_tv_buero                bg_prolog_tv_buero
     000D4717  ___func_bg_prolog_tv_vorzimmer     bg_prolog_tv_vorzimmer
     000D4717  _bg_prolog_tv_vorzimmer            bg_prolog_tv_vorzimmer
     000D4725  ___func_bg_prolog_tv_wohnzimmer    bg_prolog_tv_wohnzimmer
     000D4725  _bg_prolog_tv_wohnzimmer           bg_prolog_tv_wohnzimmer
     000D4733  ___func_bg_start_tileset           bg_start_tileset
     000D4733  _bg_start_tileset                  bg_start_tileset
     000D4745  ___func_bg_start_winnies_world4    bg_start_winnies_world4
     000D4745  _bg_start_winnies_world4           bg_start_winnies_world4
     000D4753  ___func_bg_start                   bg_start
     000D4753  _bg_start                          bg_start
     000D4761  ___func_bg_triathlon_ende          bg_triathlon_ende
     000D4761  _bg_triathlon_ende                 bg_triathlon_ende
     000D476F  ___func_bg_triathlon_start         bg_triathlon_start
     000D476F  _bg_triathlon_start                bg_triathlon_start
     000D477D  ___func_bg_triathlon_strasse       bg_triathlon_strasse
     000D477D  _bg_triathlon_strasse              bg_triathlon_strasse
     000D478B  ___func_bg_triathlon_ziel_gro_     bg_triathlon_ziel_gro_
     000D478B  _bg_triathlon_ziel_gro_            bg_triathlon_ziel_gro_
     000D4799  ___func_bg_underwater              bg_underwater
     000D4799  _bg_underwater                     bg_underwater
     000D47A7  ___func_cursor_image               cursor_image
     000D47A7  _cursor_image                      cursor_image
     000D47B7  ___func_emote_b                    emote_b
     000D47B7  _emote_b                           emote_b
     000D47F7  ___func_emote_c                    emote_c
     000D47F7  _emote_c                           emote_c
     000D4837  ___func_emote_e                    emote_e
     000D4837  _emote_e                           emote_e
     000D4877  ___func_emote_i                    emote_i
     000D4877  _emote_i                           emote_i
     000D48B7  ___func_emote_pause                emote_pause
     000D48B7  _emote_pause                       emote_pause
     000D48F7  ___func_emote_question             emote_question
     000D48F7  _emote_question                    emote_question
     000D4937  ___func_emote_shock                emote_shock
     000D4937  _emote_shock                       emote_shock
     000D4977  ___func_emote_sweat                emote_sweat
     000D4977  _emote_sweat                       emote_sweat
     000D49B7  ___func_palette_19                 palette_19
     000D49B7  _palette_19                        palette_19
     000D49FA  ___func_palette_2                  palette_2
     000D49FA  _palette_2                         palette_2
     000D4A3D  ___func_palette_20                 palette_20
     000D4A3D  _palette_20                        palette_20
ASxxxx Linker V03.00/V05.40 + sdld,  page 54.
Hexadecimal  [32-Bits]

Area                                    Addr        Size        Decimal Bytes (Attributes)
--------------------------------        ----        ----        ------- ----- ------------
_CODE_13                            000D4000    00001C2A =        7210. bytes (REL,CON)

      Value  Global                              Global Defined In Module
      -----  --------------------------------   ------------------------
     000D4A80  ___func_palette_21                 palette_21
     000D4A80  _palette_21                        palette_21
     000D4AC3  ___func_palette_3                  palette_3
     000D4AC3  _palette_3                         palette_3
     000D4B06  ___func_palette_4                  palette_4
     000D4B06  _palette_4                         palette_4
     000D4B49  ___func_palette_5                  palette_5
     000D4B49  _palette_5                         palette_5
     000D4B8C  ___func_palette_6                  palette_6
     000D4B8C  _palette_6                         palette_6
     000D4BCF  ___func_palette_7                  palette_7
     000D4BCF  _palette_7                         palette_7
     000D4C12  ___func_palette_8                  palette_8
     000D4C12  _palette_8                         palette_8
     000D4C55  ___func_palette_9                  palette_9
     000D4C55  _palette_9                         palette_9
     000D4C98  ___func_scene_0                    scene_0
     000D4C98  _scene_0                           scene_0
     000D4CD3  _scene_1_init                      scene_1_init
     000D4CE9  ___func_scene_1_triggers           scene_1_triggers
     000D4CE9  _scene_1_triggers                  scene_1_triggers
     000D4CF1  ___func_scene_1                    scene_1
     000D4CF1  _scene_1                           scene_1
     000D4D2C  _scene_10_init                     scene_10_init
     000D4D49  ___func_scene_10_triggers          scene_10_triggers
     000D4D49  _scene_10_triggers                 scene_10_triggers
     000D4D61  ___func_scene_10                   scene_10
     000D4D61  _scene_10                          scene_10
     000D4D9C  ___func_scene_11_sprites           scene_11_sprites
     000D4D9C  _scene_11_sprites                  scene_11_sprites
     000D4DB1  ___func_scene_11_triggers          scene_11_triggers
     000D4DB1  _scene_11_triggers                 scene_11_triggers
     000D4DC1  ___func_scene_11                   scene_11
     000D4DC1  _scene_11                          scene_11
     000D4DFC  _scene_12_init                     scene_12_init
     000D4E34  ___func_scene_12_sprites           scene_12_sprites
     000D4E34  _scene_12_sprites                  scene_12_sprites
     000D4E3D  ___func_scene_12_triggers          scene_12_triggers
     000D4E3D  _scene_12_triggers                 scene_12_triggers
     000D4E55  ___func_scene_12                   scene_12
     000D4E55  _scene_12                          scene_12
     000D4E90  _scene_13_init                     scene_13_init
     000D4EA6  ___func_scene_13_sprites           scene_13_sprites
     000D4EA6  _scene_13_sprites                  scene_13_sprites
     000D4EAC  ___func_scene_13_triggers          scene_13_triggers
     000D4EAC  _scene_13_triggers                 scene_13_triggers
     000D4EB4  ___func_scene_13                   scene_13
     000D4EB4  _scene_13                          scene_13
     000D4EEF  ___func_scene_14_triggers          scene_14_triggers
     000D4EEF  _scene_14_triggers                 scene_14_triggers
     000D4EF7  ___func_scene_14                   scene_14
ASxxxx Linker V03.00/V05.40 + sdld,  page 55.
Hexadecimal  [32-Bits]

Area                                    Addr        Size        Decimal Bytes (Attributes)
--------------------------------        ----        ----        ------- ----- ------------
_CODE_13                            000D4000    00001C2A =        7210. bytes (REL,CON)

      Value  Global                              Global Defined In Module
      -----  --------------------------------   ------------------------
     000D4EF7  _scene_14                          scene_14
     000D4F32  ___func_scene_15_actors            scene_15_actors
     000D4F32  _scene_15_actors                   scene_15_actors
     000D4F66  ___func_scene_15_sprites           scene_15_sprites
     000D4F66  _scene_15_sprites                  scene_15_sprites
     000D4F69  ___func_scene_15_triggers          scene_15_triggers
     000D4F69  _scene_15_triggers                 scene_15_triggers
     000D4F71  ___func_scene_15                   scene_15
     000D4F71  _scene_15                          scene_15
     000D4FAC  _scene_16_init                     scene_16_init
     000D4FEE  ___func_scene_16_sprites           scene_16_sprites
     000D4FEE  _scene_16_sprites                  scene_16_sprites
     000D5000  ___func_scene_16_triggers          scene_16_triggers
     000D5000  _scene_16_triggers                 scene_16_triggers
     000D5010  ___func_scene_16                   scene_16
     000D5010  _scene_16                          scene_16
     000D504B  ___func_scene_17_sprites           scene_17_sprites
     000D504B  _scene_17_sprites                  scene_17_sprites
     000D5054  ___func_scene_17_triggers          scene_17_triggers
     000D5054  _scene_17_triggers                 scene_17_triggers
     000D506C  ___func_scene_17                   scene_17
     000D506C  _scene_17                          scene_17
     000D50A7  ___func_scene_18_sprites           scene_18_sprites
     000D50A7  _scene_18_sprites                  scene_18_sprites
     000D50BF  ___func_scene_18_triggers          scene_18_triggers
     000D50BF  _scene_18_triggers                 scene_18_triggers
     000D50D7  ___func_scene_18                   scene_18
     000D50D7  _scene_18                          scene_18
     000D5112  ___func_scene_19_sprites           scene_19_sprites
     000D5112  _scene_19_sprites                  scene_19_sprites
     000D5118  ___func_scene_19_triggers          scene_19_triggers
     000D5118  _scene_19_triggers                 scene_19_triggers
     000D5128  ___func_scene_19                   scene_19
     000D5128  _scene_19                          scene_19
     000D5163  ___func_scene_2                    scene_2
     000D5163  _scene_2                           scene_2
     000D519E  ___func_scene_20_actors            scene_20_actors
     000D519E  _scene_20_actors                   scene_20_actors
     000D51D2  _scene_20_init                     scene_20_init
     000D51EF  ___func_scene_20_sprites           scene_20_sprites
     000D51EF  _scene_20_sprites                  scene_20_sprites
     000D51F2  ___func_scene_20_triggers          scene_20_triggers
     000D51F2  _scene_20_triggers                 scene_20_triggers
     000D5202  ___func_scene_20                   scene_20
     000D5202  _scene_20                          scene_20
     000D523D  ___func_scene_21_actors            scene_21_actors
     000D523D  _scene_21_actors                   scene_21_actors
     000D5271  _scene_21_init                     scene_21_init
     000D528E  ___func_scene_21_sprites           scene_21_sprites
     000D528E  _scene_21_sprites                  scene_21_sprites
     000D5291  ___func_scene_21_triggers          scene_21_triggers
ASxxxx Linker V03.00/V05.40 + sdld,  page 56.
Hexadecimal  [32-Bits]

Area                                    Addr        Size        Decimal Bytes (Attributes)
--------------------------------        ----        ----        ------- ----- ------------
_CODE_13                            000D4000    00001C2A =        7210. bytes (REL,CON)

      Value  Global                              Global Defined In Module
      -----  --------------------------------   ------------------------
     000D5291  _scene_21_triggers                 scene_21_triggers
     000D52A1  ___func_scene_21                   scene_21
     000D52A1  _scene_21                          scene_21
     000D52DC  _scene_22_init                     scene_22_init
     000D52F9  ___func_scene_22_sprites           scene_22_sprites
     000D52F9  _scene_22_sprites                  scene_22_sprites
     000D52FF  ___func_scene_22_triggers          scene_22_triggers
     000D52FF  _scene_22_triggers                 scene_22_triggers
     000D5307  ___func_scene_22                   scene_22
     000D5307  _scene_22                          scene_22
     000D5342  _scene_3_init                      scene_3_init
     000D5358  ___func_scene_3_triggers           scene_3_triggers
     000D5358  _scene_3_triggers                  scene_3_triggers
     000D5368  ___func_scene_3                    scene_3
     000D5368  _scene_3                           scene_3
     000D53A3  _scene_4_init                      scene_4_init
     000D53CD  ___func_scene_4_sprites            scene_4_sprites
     000D53CD  _scene_4_sprites                   scene_4_sprites
     000D53E5  ___func_scene_4_triggers           scene_4_triggers
     000D53E5  _scene_4_triggers                  scene_4_triggers
     000D53ED  ___func_scene_4                    scene_4
     000D53ED  _scene_4                           scene_4
     000D5428  ___func_scene_5_sprites            scene_5_sprites
     000D5428  _scene_5_sprites                   scene_5_sprites
     000D542B  ___func_scene_5_triggers           scene_5_triggers
     000D542B  _scene_5_triggers                  scene_5_triggers
     000D5433  ___func_scene_5                    scene_5
     000D5433  _scene_5                           scene_5
     000D546E  ___func_scene_6_actors             scene_6_actors
     000D546E  _scene_6_actors                    scene_6_actors
     000D54A2  _scene_6_init                      scene_6_init
     000D54E0  ___func_scene_6_sprites            scene_6_sprites
     000D54E0  _scene_6_sprites                   scene_6_sprites
     000D54E3  ___func_scene_6                    scene_6
     000D54E3  _scene_6                           scene_6
     000D551E  ___func_scene_7_sprites            scene_7_sprites
     000D551E  _scene_7_sprites                   scene_7_sprites
     000D5524  ___func_scene_7                    scene_7
     000D5524  _scene_7                           scene_7
     000D555F  ___func_scene_9_actors             scene_9_actors
     000D555F  _scene_9_actors                    scene_9_actors
     000D5593  _scene_9_init                      scene_9_init
     000D55B0  ___func_scene_9_sprites            scene_9_sprites
     000D55B0  _scene_9_sprites                   scene_9_sprites
     000D55B3  ___func_scene_9_triggers           scene_9_triggers
     000D55B3  _scene_9_triggers                  scene_9_triggers
     000D55CB  ___func_scene_9                    scene_9
     000D55CB  _scene_9                           scene_9
     000D5606  _script_12                         script_12
     000D5620  _script_7                          script_7
     000D5659  ___func_sound_sweetsounds_sfx_na   sound_sweetsounds_sfx_naked_
ASxxxx Linker V03.00/V05.40 + sdld,  page 57.
Hexadecimal  [32-Bits]

Area                                    Addr        Size        Decimal Bytes (Attributes)
--------------------------------        ----        ----        ------- ----- ------------
_CODE_13                            000D4000    00001C2A =        7210. bytes (REL,CON)

      Value  Global                              Global Defined In Module
      -----  --------------------------------   ------------------------
     000D5659  _sound_sweetsounds_sfx_naked_3     sound_sweetsounds_sfx_naked_
     000D5677  ___func_sprite_biker               sprite_biker
     000D5677  _sprite_biker_metasprite_0         sprite_biker
     000D5683  _sprite_biker_metasprite_1         sprite_biker
     000D568F  _sprite_biker_metasprites          sprite_biker
     000D5693  _sprite_biker_animations           sprite_biker
     000D56A3  _sprite_biker_animations_lookup    sprite_biker
     000D56A5  _sprite_biker                      sprite_biker
     000D56B8  ___func_sprite_catnip_tileset      sprite_catnip_tileset
     000D56B8  _sprite_catnip_tileset             sprite_catnip_tileset
     000D56FA  ___func_sprite_catnip              sprite_catnip
     000D56FA  _sprite_catnip_metasprite_0        sprite_catnip
     000D5706  _sprite_catnip_metasprites         sprite_catnip
     000D5708  _sprite_catnip_animations          sprite_catnip
     000D5718  _sprite_catnip_animations_lookup   sprite_catnip
     000D571A  _sprite_catnip                     sprite_catnip
     000D572D  ___func_sprite_chest_tileset       sprite_chest_tileset
     000D572D  _sprite_chest_tileset              sprite_chest_tileset
     000D576F  ___func_sprite_pump_tileset        sprite_pump_tileset
     000D576F  _sprite_pump_tileset               sprite_pump_tileset
     000D57B1  ___func_sprite_pump                sprite_pump
     000D57B1  _sprite_pump_metasprite_0          sprite_pump
     000D57BD  _sprite_pump_metasprites           sprite_pump
     000D57BF  _sprite_pump_animations            sprite_pump
     000D57CF  _sprite_pump_animations_lookup     sprite_pump
     000D57D1  _sprite_pump                       sprite_pump
     000D57E4  ___func_sprite_sup_winnie          sprite_sup_winnie
     000D57E4  _sprite_sup_winnie_metasprite_0    sprite_sup_winnie
     000D57FC  _sprite_sup_winnie_metasprites     sprite_sup_winnie
     000D57FE  _sprite_sup_winnie_animations      sprite_sup_winnie
     000D580E  _sprite_sup_winnie_animations_lo   sprite_sup_winnie
     000D5810  _sprite_sup_winnie                 sprite_sup_winnie
     000D5823  _spritesheet_none_metasprite       spritesheet_none
     000D5827  _spritesheet_none_metasprites      spritesheet_none
     000D5829  _spritesheet_none                  spritesheet_none
     000D583C  _trigger_0_interact                trigger_0_interact
     000D5868  _trigger_1_interact                trigger_1_interact
     000D5894  _trigger_11_interact               trigger_11_interact
     000D58C0  _trigger_12_interact               trigger_12_interact
     000D58E6  _trigger_13_interact               trigger_13_interact
     000D5912  _trigger_14_interact               trigger_14_interact
     000D5918  _trigger_18_interact               trigger_18_interact
     000D591E  _trigger_2_interact                trigger_2_interact
     000D594A  _trigger_20_interact               trigger_20_interact
     000D5970  _trigger_21_interact               trigger_21_interact
     000D5996  _trigger_23_interact               trigger_23_interact
     000D59BC  _trigger_24_interact               trigger_24_interact
     000D59EB  _trigger_25_interact               trigger_25_interact
     000D5A11  _trigger_4_interact                trigger_4_interact
     000D5A3D  _trigger_42_interact               trigger_42_interact
     000D5A69  _trigger_43_interact               trigger_43_interact
ASxxxx Linker V03.00/V05.40 + sdld,  page 58.
Hexadecimal  [32-Bits]

Area                                    Addr        Size        Decimal Bytes (Attributes)
--------------------------------        ----        ----        ------- ----- ------------
_CODE_13                            000D4000    00001C2A =        7210. bytes (REL,CON)

      Value  Global                              Global Defined In Module
      -----  --------------------------------   ------------------------
     000D5A95  _trigger_45_interact               trigger_45_interact
     000D5AC1  _trigger_46_interact               trigger_46_interact
     000D5AFD  _trigger_47_interact               trigger_47_interact
     000D5B29  _trigger_48_interact               trigger_48_interact
     000D5B55  _trigger_49_interact               trigger_49_interact
     000D5B81  _trigger_6_interact                trigger_6_interact
     000D5BA7  _trigger_7_interact                trigger_7_interact
     000D5BCD  _trigger_8_interact                trigger_8_interact
     000D5BF3  _trigger_9_interact                trigger_9_interact
     000D5C19  _logo_init                         logo
     000D5C29  _logo_update                       logo

ASxxxx Linker V03.00/V05.40 + sdld,  page 59.
Hexadecimal  [32-Bits]

Area                                    Addr        Size        Decimal Bytes (Attributes)
--------------------------------        ----        ----        ------- ----- ------------
_CODE_7                             00074000    00003FFE =       16382. bytes (REL,CON)

      Value  Global                              Global Defined In Module
      -----  --------------------------------   ------------------------
     00074000  _core_reset                        core
     00074075  _process_VM                        core
     000742F7  _core_run                          core
     000743D3  _palette_init                      palette
     0007440A  _CGBZeroPalette                    palette
     0007441F  _scroll_init                       scroll
     00074449  _scroll_reset                      scroll
     00074469  _scroll_update                     scroll
     0007457A  _scroll_viewport                   scroll
     00074A13  _scroll_repaint                    scroll
     00074A23  _scroll_render_rows                scroll
     00074AB9  _scroll_queue_row                  scroll
     00074ADB  _scroll_queue_col                  scroll
     00074B26  ___func_VM_GAMEBOY                 vm_gameboy
     00074B26  _vm_set_sprites_visible            vm_gameboy
     00074B3D  _vm_input_wait                     vm_gameboy
     00074B66  _vm_context_prepare                vm_gameboy
     00074B91  _vm_input_attach                   vm_gameboy
     00074BA7  _vm_input_detach                   vm_gameboy
     00074BBB  _vm_input_get                      vm_gameboy
     00074BEF  _vm_fade                           vm_gameboy
     00074C1F  _vm_timer_prepare                  vm_gameboy
     00074C4A  _vm_timer_set                      vm_gameboy
     00074C65  _vm_timer_stop                     vm_gameboy
     00074C79  _vm_timer_reset                    vm_gameboy
     00074C90  _vm_get_tile_xy                    vm_gameboy
     00074D66  _vm_replace_tile                   vm_gameboy
     00074E0D  _vm_poll                           vm_gameboy
     00074EDF  _vm_set_sprite_mode                vm_gameboy
     00074EF3  _vm_replace_tile_xy                vm_gameboy
     000750D3  _vm_rumble                         vm_gameboy
     000750F3  _vm_load_tiles                     vm_gameboy
     00075108  _vm_load_tileset                   vm_gameboy
     000751D9  _actor_36_interact                 actor_36_interact
     000758DB  _actor_68_interact                 actor_68_interact
     00075DF3  _actor_69_interact                 actor_69_interact
     000764D6  ___func_bg_prolog_mb_wohnzimmer_   bg_prolog_mb_wohnzimmer_tile
     000764D6  _bg_prolog_mb_wohnzimmer_tileset   bg_prolog_mb_wohnzimmer_tile
     00076B78  ___func_song_action_free_ost_1_b   song_action_free_ost_1_back_
     00076B78  _song_action_free_ost_1_back0      song_action_free_ost_1_back_
     00076CBB  _song_action_free_ost_1_back1      song_action_free_ost_1_back_
     00076E1A  _song_action_free_ost_1_back2      song_action_free_ost_1_back_
     00076F68  _song_action_free_ost_1_back3      song_action_free_ost_1_back_
     000770E2  _song_action_free_ost_1_back4      song_action_free_ost_1_back_
     0007725D  _song_action_free_ost_1_back_Dat   song_action_free_ost_1_back_
     00077271  _adventure_init                    adventure
     00077286  _adventure_update                  adventure
     0007793D  _topdown_init                      topdown
     000779D4  _topdown_update                    topdown

ASxxxx Linker V03.00/V05.40 + sdld,  page 60.
Hexadecimal  [32-Bits]

Area                                    Addr        Size        Decimal Bytes (Attributes)
--------------------------------        ----        ----        ------- ----- ------------
_CRASH_HEADER0                      00000000    00000005 =           5. bytes (ABS,CON)

      Value  Global                              Global Defined In Module
      -----  --------------------------------   ------------------------
ASxxxx Linker V03.00/V05.40 + sdld,  page 61.
Hexadecimal  [32-Bits]

Area                                    Addr        Size        Decimal Bytes (Attributes)
--------------------------------        ----        ----        ------- ----- ------------
_CRASH_HEADER1                      00000000    00000004 =           4. bytes (ABS,CON)

      Value  Global                              Global Defined In Module
      -----  --------------------------------   ------------------------
ASxxxx Linker V03.00/V05.40 + sdld,  page 62.
Hexadecimal  [32-Bits]

Area                                    Addr        Size        Decimal Bytes (Attributes)
--------------------------------        ----        ----        ------- ----- ------------
_CODE_8                             00084000    00003FFF =       16383. bytes (REL,CON)

      Value  Global                              Global Defined In Module
      -----  --------------------------------   ------------------------
     00084000  ___HandleCrash_banked              
     00084368  _printer_send_receive              gbprinter
     0008439E  _printer_send_byte                 gbprinter
     000843B1  _printer_send_command              gbprinter
     000843D4  _printer_print_tile                gbprinter
     00084465  _printer_wait                      gbprinter
     00084497  _gbprinter_detect                  gbprinter
     000844B1  _gbprinter_print_overlay           gbprinter
     0008467E  _data_init                         load_save
     000846C9  _save_points                       load_save
     00084729  _data_slot_address                 load_save
     000847A1  _data_save                         load_save
     00084862  _data_load                         load_save
     00084976  _data_clear                        load_save
     000849A3  _data_peek                         load_save
     00084A44  _atan2                             math_atan2
     00084BE3  _atan2_table                       math_atan2
     00084D4B  _projectiles_init                  projectiles
     00084D7A  _projectile_launch                 projectiles
     00085191  _trigger_reset                     trigger
     000851A1  _trigger_interact                  trigger
     000851E0  _trigger_activate_at               trigger
     0008522B  _trigger_at_intersection           trigger
     00085352  _trigger_activate_at_intersectio   trigger
     00085493  _trigger_at_tile                   trigger
     00085524  ___func_VM_SIO                     vm_sio
     00085524  _vm_sio_set_mode                   vm_sio
     00085536  _vm_sio_exchange                   vm_sio
     00085816  _actor_27_interact                 actor_27_interact
     00085CFB  _actor_3_interact                  actor_3_interact
     0008607E  _actor_4_interact                  actor_4_interact
     000863DD  _actor_52_interact                 actor_52_interact
     00086676  _actor_67_interact                 actor_67_interact
     00086AE0  _actor_70_interact                 actor_70_interact
     00086DD3  ___func_bg_fischteich_big_tilese   bg_fischteich_big_tileset
     00086DD3  _bg_fischteich_big_tileset         bg_fischteich_big_tileset
     000872D5  ___func_bg_prolog_mb_schlafzimme   bg_prolog_mb_schlafzimmer_ti
     000872D5  _bg_prolog_mb_schlafzimmer_tiles   bg_prolog_mb_schlafzimmer_ti
     000875E7  ___func_bg_prolog_mb_vorraum_til   bg_prolog_mb_vorraum_tileset
     000875E7  _bg_prolog_mb_vorraum_tileset      bg_prolog_mb_vorraum_tileset
     00087999  ___func_bg_prolog_tv_buero_tiles   bg_prolog_tv_buero_tileset
     00087999  _bg_prolog_tv_buero_tileset        bg_prolog_tv_buero_tileset
     00087C8B  _pointnclick_init                  pointnclick
     00087CC4  _pointnclick_update                pointnclick

ASxxxx Linker V03.00/V05.40 + sdld,  page 63.
Hexadecimal  [32-Bits]

Area                                    Addr        Size        Decimal Bytes (Attributes)
--------------------------------        ----        ----        ------- ----- ------------
_CRASH_SCRATCH2                     00000000    000001CB =         459. bytes (ABS,CON)

      Value  Global                              Global Defined In Module
      -----  --------------------------------   ------------------------
ASxxxx Linker V03.00/V05.40 + sdld,  page 64.
Hexadecimal  [32-Bits]

Area                                    Addr        Size        Decimal Bytes (Attributes)
--------------------------------        ----        ----        ------- ----- ------------
_CODE_6                             00064000    00004000 =       16384. bytes (REL,CON)

      Value  Global                              Global Defined In Module
      -----  --------------------------------   ------------------------
     00064000  _load_init                         data_manager
     00064013  _spritesheet_none_far              data_manager
     00064016  _load_bkg_tileset                  data_manager
     000640F3  _load_background                   data_manager
     000641B9  _load_sprite                       data_manager
     0006428F  _load_bounds                       data_manager
     000642AC  _do_load_palette                   data_manager
     00064331  _load_scene                        data_manager
     00064996  _load_player                       data_manager
     000649DF  _load_emote                        data_manager
     000649F8  ___func_VM_UI                      vm_ui
     000649F8  _vm_display_text                   vm_ui
     00064A66  _vm_switch_text_layer              vm_ui
     00064A80  _vm_overlay_setpos                 vm_ui
     00064A9A  _vm_overlay_wait                   vm_ui
     00064B2A  _vm_overlay_move_to                vm_ui
     00064B6E  _vm_overlay_set_scroll             vm_ui
     00064BA7  _vm_overlay_clear                  vm_ui
     00064C79  _vm_overlay_show                   vm_ui
     00064CC7  _vm_choice                         vm_ui
     00064DE2  _vm_set_font                       vm_ui
     00064E11  _vm_overlay_scroll                 vm_ui
     00064E72  _vm_overlay_set_submap             vm_ui
     00064EDE  _vm_overlay_set_submap_ex          vm_ui
     00064FDF  _vm_overlay_set_map                vm_ui
     0006513E  _vm_set_text_sound                 vm_ui
     00065157  _actor_13_interact                 actor_13_interact
     00065202  _actor_28_interact                 actor_28_interact
     000659B0  _actor_35_interact                 actor_35_interact
     00066149  _actor_38_interact                 actor_38_interact
     00066948  ___func_bg_huette_tileset          bg_huette_tileset
     00066948  _bg_huette_tileset                 bg_huette_tileset
     0006730A  ___func_bg_prolog_tv_wohnzimmer_   bg_prolog_tv_wohnzimmer_tile
     0006730A  _bg_prolog_tv_wohnzimmer_tileset   bg_prolog_tv_wohnzimmer_tile
     0006782C  ___func_scene_0_sprites            scene_0_sprites
     0006782C  _scene_0_sprites                   scene_0_sprites
     00067838  _shmup_init                        shmup
     000678D5  _shmup_update                      shmup

ASxxxx Linker V03.00/V05.40 + sdld,  page 65.
Hexadecimal  [32-Bits]

Area                                    Addr        Size        Decimal Bytes (Attributes)
--------------------------------        ----        ----        ------- ----- ------------
_CODE_1                             00014000    00003FF3 =       16371. bytes (REL,CON)

      Value  Global                              Global Defined In Module
      -----  --------------------------------   ------------------------
     00014000  _events_init                       events
     00014040  _timers_init                       events
     00014080  _ui_swap_tiles                     
     000140CA  _ui_print_make_mask_lr             
     000140E6  _ui_print_make_mask_rl             
     00014102  _ui_init                           ui
     000141D3  _ui_load_tiles                     ui
     0001422A  _ui_draw_frame                     ui
     000142C4  _ui_print_reset                    ui
     00014315  _ui_set_start_tile                 ui
     00014341  _ui_print_render                   ui
     000145D8  _ui_draw_text_buffer_char          ui
     00014ABC  _ui_run_menu                       ui
     00014CA5  _ui_run_modal                      ui
     00014D5F  ___func_VM_ACTOR                   vm_actor
     00014D5F  _vm_actor_move_to                  vm_actor
     000156FB  _vm_actor_move_cancel              vm_actor
     00015731  _vm_actor_activate                 vm_actor
     00015782  _vm_actor_deactivate               vm_actor
     000157D3  _vm_actor_begin_update             vm_actor
     0001585A  _vm_actor_terminate_update         vm_actor
     000158A1  _vm_actor_set_dir                  vm_actor
     000158EA  _vm_actor_set_anim                 vm_actor
     00015978  _vm_actor_set_pos                  vm_actor
     000159F2  _vm_actor_get_pos                  vm_actor
     00015A61  _vm_actor_get_dir                  vm_actor
     00015ADB  _vm_actor_get_angle                vm_actor
     00015B5C  _vm_actor_emote                    vm_actor
     00015C20  _vm_actor_set_bounds               vm_actor
     00015C7E  _vm_actor_set_spritesheet          vm_actor
     00015D48  _vm_actor_replace_tile             vm_actor
     00015DB3  _vm_actor_set_anim_tick            vm_actor
     00015DF1  _vm_actor_set_move_speed           vm_actor
     00015E2F  _vm_actor_set_anim_frame           vm_actor
     00015E73  _vm_actor_get_anim_frame           vm_actor
     00015EBD  _vm_actor_set_anim_set             vm_actor
     00015F45  _vm_actor_set_spritesheet_by_ref   vm_actor
     00016052  _vm_actor_set_flags                vm_actor
     00016100  ___func_VM_SGB                     vm_sgb
     00016100  ___func_song_action_boss_fight2_   song_action_boss_fight2_Data
     00016100  _song_action_boss_fight20          song_action_boss_fight2_Data
     0001622D  _song_action_boss_fight21          song_action_boss_fight2_Data
     00016359  _song_action_boss_fight22          song_action_boss_fight2_Data
     00016485  _song_action_boss_fight23          song_action_boss_fight2_Data
     000165B1  _song_action_boss_fight24          song_action_boss_fight2_Data
     000166F0  _song_action_boss_fight25          song_action_boss_fight2_Data
     0001682F  _song_action_boss_fight26          song_action_boss_fight2_Data
     0001696E  _song_action_boss_fight27          song_action_boss_fight2_Data
     00016AAF  _song_action_boss_fight28          song_action_boss_fight2_Data
     00016C0B  _song_action_boss_fight29          song_action_boss_fight2_Data
ASxxxx Linker V03.00/V05.40 + sdld,  page 66.
Hexadecimal  [32-Bits]

Area                                    Addr        Size        Decimal Bytes (Attributes)
--------------------------------        ----        ----        ------- ----- ------------
_CODE_1                             00014000    00003FF3 =       16371. bytes (REL,CON)

      Value  Global                              Global Defined In Module
      -----  --------------------------------   ------------------------
     00016D67  _song_action_boss_fight210         song_action_boss_fight2_Data
     00016EC3  _song_action_boss_fight211         song_action_boss_fight2_Data
     0001701F  _song_action_boss_fight212         song_action_boss_fight2_Data
     0001717B  _song_action_boss_fight213         song_action_boss_fight2_Data
     000172BA  _song_action_boss_fight214         song_action_boss_fight2_Data
     000173F9  _song_action_boss_fight215         song_action_boss_fight2_Data
     00017538  _song_action_boss_fight216         song_action_boss_fight2_Data
     00017679  _song_action_boss_fight217         song_action_boss_fight2_Data
     000177D6  _song_action_boss_fight2_Data      song_action_boss_fight2_Data
     0001791C  gbt_channel_1_handle               
     00017AF6  gbt_channel_2_handle               
     00017CC8  gbt_channel_3_handle               
     00017EA1  gbt_channel_4_handle               
     00017FBA  gbt_update_bank1                   
     00017FD6  gbt_update_effects_bank1           

ASxxxx Linker V03.00/V05.40 + sdld,  page 67.
Hexadecimal  [32-Bits]

Area                                    Addr        Size        Decimal Bytes (Attributes)
--------------------------------        ----        ----        ------- ----- ------------
_CODE_9                             00094000    00004000 =       16384. bytes (REL,CON)

      Value  Global                              Global Defined In Module
      -----  --------------------------------   ------------------------
     00094000  _CGBFadeToWhiteStep                fade_manager
     00094039  _CGBFadeToBlackStep                fade_manager
     00094074  _ApplyPaletteChangeColor           fade_manager
     000940B1  _fade_speeds                       fade_manager
     000940B8  _DMGFadeToWhiteStep                fade_manager
     000940D9  _DMGFadeToBlackStep                fade_manager
     000940FC  _ApplyPaletteChangeDMG             fade_manager
     00094152  _fade_init                         fade_manager
     00094174  _fade_in                           fade_manager
     0009419E  _fade_out                          fade_manager
     000941C7  _fade_update                       fade_manager
     0009421C  _fade_applypalettechange           fade_manager
     00094230  _fade_setspeed                     fade_manager
     00094240  _fade_in_modal                     fade_manager
     0009425A  _fade_out_modal                    fade_manager
     00094274  ___func_VM_CAMERA                  vm_camera
     00094274  _vm_camera_move_to                 vm_camera
     000943C7  _vm_camera_set_pos                 vm_camera
     0009440E  _camera_shake_frames               vm_camera
     00094506  _actor_32_interact                 actor_32_interact
     000947F3  _actor_62_interact                 actor_62_interact
     00094A98  _actor_64_interact                 actor_64_interact
     00094D3D  ___func_bg_fischteich_big_tilema   bg_fischteich_big_tilemap_at
     00094D3D  _bg_fischteich_big_tilemap_attr    bg_fischteich_big_tilemap_at
     0009500D  ___func_bg_fischteich_big_tilema   bg_fischteich_big_tilemap
     0009500D  _bg_fischteich_big_tilemap         bg_fischteich_big_tilemap
     000952DD  ___func_bg_glueckwuensche_1_tile   bg_glueckwuensche_1_tileset
     000952DD  _bg_glueckwuensche_1_tileset       bg_glueckwuensche_1_tileset
     0009556F  ___func_bg_glueckwuensche_3_tile   bg_glueckwuensche_3_tileset
     0009556F  _bg_glueckwuensche_3_tileset       bg_glueckwuensche_3_tileset
     00095801  ___func_bg_prolog_mb_bad_tileset   bg_prolog_mb_bad_tileset
     00095801  _bg_prolog_mb_bad_tileset          bg_prolog_mb_bad_tileset
     00095A83  ___func_bg_prolog_mb_wohnzimmer_   bg_prolog_mb_wohnzimmer_tile
     00095A83  _bg_prolog_mb_wohnzimmer_tilemap   bg_prolog_mb_wohnzimmer_tile
     00095D53  ___func_bg_prolog_mb_wohnzimmer_   bg_prolog_mb_wohnzimmer_tile
     00095D53  _bg_prolog_mb_wohnzimmer_tilemap   bg_prolog_mb_wohnzimmer_tile
     00096023  ___func_bg_prolog_tv_wohnzimmer_   bg_prolog_tv_wohnzimmer_tile
     00096023  _bg_prolog_tv_wohnzimmer_tilemap   bg_prolog_tv_wohnzimmer_tile
     000962F3  ___func_bg_prolog_tv_wohnzimmer_   bg_prolog_tv_wohnzimmer_tile
     000962F3  _bg_prolog_tv_wohnzimmer_tilemap   bg_prolog_tv_wohnzimmer_tile
     000965C3  ___func_bg_triathlon_ende_tilema   bg_triathlon_ende_tilemap_at
     000965C3  _bg_triathlon_ende_tilemap_attr    bg_triathlon_ende_tilemap_at
     00096893  ___func_bg_triathlon_ende_tilema   bg_triathlon_ende_tilemap
     00096893  _bg_triathlon_ende_tilemap         bg_triathlon_ende_tilemap
     00096B63  ___func_bg_triathlon_ziel_gro__t   bg_triathlon_ziel_gro__tilem
     00096B63  _bg_triathlon_ziel_gro__tilemap_   bg_triathlon_ziel_gro__tilem
     00096E33  ___func_bg_triathlon_ziel_gro__t   bg_triathlon_ziel_gro__tilem
     00096E33  _bg_triathlon_ziel_gro__tilemap    bg_triathlon_ziel_gro__tilem
     00097103  ___func_scene_11_collisions        scene_11_collisions
     00097103  _scene_11_collisions               scene_11_collisions
ASxxxx Linker V03.00/V05.40 + sdld,  page 68.
Hexadecimal  [32-Bits]

Area                                    Addr        Size        Decimal Bytes (Attributes)
--------------------------------        ----        ----        ------- ----- ------------
_CODE_9                             00094000    00004000 =       16384. bytes (REL,CON)

      Value  Global                              Global Defined In Module
      -----  --------------------------------   ------------------------
     000973D3  ___func_scene_12_collisions        scene_12_collisions
     000973D3  _scene_12_collisions               scene_12_collisions
     000976A3  _scene_14_init                     scene_14_init
     0009778D  ___func_scene_14_sprites           scene_14_sprites
     0009778D  _scene_14_sprites                  scene_14_sprites
     00097790  ___func_scene_16_collisions        scene_16_collisions
     00097790  _scene_16_collisions               scene_16_collisions
     00097A60  ___func_scene_17_collisions        scene_17_collisions
     00097A60  _scene_17_collisions               scene_17_collisions
     00097D30  ___func_scene_18_collisions        scene_18_collisions
     00097D30  _scene_18_collisions               scene_18_collisions

ASxxxx Linker V03.00/V05.40 + sdld,  page 69.
Hexadecimal  [32-Bits]

Area                                    Addr        Size        Decimal Bytes (Attributes)
--------------------------------        ----        ----        ------- ----- ------------
_CODE_12                            000C4000    00004000 =       16384. bytes (REL,CON)

      Value  Global                              Global Defined In Module
      -----  --------------------------------   ------------------------
     000C4000  _restore_sram_bank                 flasher
     000C4036  _restore_sram                      flasher
     000C404C  _save_sram                         flasher
     000C4078  _input_init                        input
     000C409E  _music_init_driver                 music_manager
     000C4101  _music_init_events                 music_manager
     000C413D  _music_events_poll                 music_manager
     000C4165  _music_pause                       music_manager
     000C4187  ___func_VM_GBPRINTER               vm_gbprinter
     000C4187  _vm_print_detect                   vm_gbprinter
     000C41D6  _vm_print_overlay                  vm_gbprinter
     000C422B  ___func_VM_LOAD_SAVE               vm_load_save
     000C422B  _vm_save_clear                     vm_load_save
     000C423A  _vm_save_peek                      vm_load_save
     000C42BC  ___func_VM_PROJECTILE              vm_projectiles
     000C42BC  _vm_projectile_launch              vm_projectiles
     000C42FD  _vm_projectile_load_type           vm_projectiles
     000C438F  ___func_VM_RTC                     vm_rtc
     000C438F  _vm_rtc_latch                      vm_rtc
     000C4397  _vm_rtc_get                        vm_rtc
     000C43FE  _vm_rtc_set                        vm_rtc
     000C445C  _vm_rtc_start                      vm_rtc
     000C447F  ___func_VM_SCENE                   vm_scene
     000C447F  _vm_scene_push                     vm_scene
     000C44F5  _vm_scene_pop                      vm_scene
     000C4503  _vm_scene_pop_all                  vm_scene
     000C450E  _vm_scene_stack_reset              vm_scene
     000C4517  _itoa_fmt                          vm_ui_a
     000C4550  .utoa_fmt                          vm_ui_a
     000C45FA  _actor_11_interact                 actor_11_interact
     000C4646  _actor_14_interact                 actor_14_interact
     000C4692  _actor_18_update                   actor_18_update
     000C470B  _actor_19_update                   actor_19_update
     000C4784  _actor_20_update                   actor_20_update
     000C47FD  _actor_22_update                   actor_22_update
     000C4876  _actor_29_update                   actor_29_update
     000C48BF  _actor_34_update                   actor_34_update
     000C4908  _actor_41_interact                 actor_41_interact
     000C4964  _actor_42_interact                 actor_42_interact
     000C49A7  _actor_44_update                   actor_44_update
     000C49F0  _actor_46_interact                 actor_46_interact
     000C4A51  _actor_63_interact                 actor_63_interact
     000C4AB6  _actor_63_update                   actor_63_update
     000C4B5E  _actor_66_interact                 actor_66_interact
     000C4BE5  _actor_9_update                    actor_9_update
     000C4C2E  ___func_bg_triathlon_strasse_til   bg_triathlon_strasse_tileset
     000C4C2E  _bg_triathlon_strasse_tileset      bg_triathlon_strasse_tileset
     000C4D30  ___func_frame_image                frame_image
     000C4D30  _frame_image                       frame_image
     000C4DC0  ___func_palette_0                  palette_0
ASxxxx Linker V03.00/V05.40 + sdld,  page 70.
Hexadecimal  [32-Bits]

Area                                    Addr        Size        Decimal Bytes (Attributes)
--------------------------------        ----        ----        ------- ----- ------------
_CODE_12                            000C4000    00004000 =       16384. bytes (REL,CON)

      Value  Global                              Global Defined In Module
      -----  --------------------------------   ------------------------
     000C4DC0  _palette_0                         palette_0
     000C4E03  ___func_palette_1                  palette_1
     000C4E03  _palette_1                         palette_1
     000C4E46  ___func_palette_10                 palette_10
     000C4E46  _palette_10                        palette_10
     000C4E89  ___func_palette_11                 palette_11
     000C4E89  _palette_11                        palette_11
     000C4ECC  ___func_palette_12                 palette_12
     000C4ECC  _palette_12                        palette_12
     000C4F0F  ___func_palette_13                 palette_13
     000C4F0F  _palette_13                        palette_13
     000C4F52  ___func_palette_14                 palette_14
     000C4F52  _palette_14                        palette_14
     000C4F95  ___func_palette_15                 palette_15
     000C4F95  _palette_15                        palette_15
     000C4FD8  ___func_palette_16                 palette_16
     000C4FD8  _palette_16                        palette_16
     000C501B  ___func_palette_17                 palette_17
     000C501B  _palette_17                        palette_17
     000C505E  ___func_palette_18                 palette_18
     000C505E  _palette_18                        palette_18
     000C50A1  ___func_scene_0_actors             scene_0_actors
     000C50A1  _scene_0_actors                    scene_0_actors
     000C5171  _scene_0_init                      scene_0_init
     000C5251  ___func_scene_10_actors            scene_10_actors
     000C5251  _scene_10_actors                   scene_10_actors
     000C52B9  _scene_11_init                     scene_11_init
     000C5320  ___func_scene_12_actors            scene_12_actors
     000C5320  _scene_12_actors                   scene_12_actors
     000C53BC  ___func_scene_13_actors            scene_13_actors
     000C53BC  _scene_13_actors                   scene_13_actors
     000C5424  ___func_scene_14_actors            scene_14_actors
     000C5424  _scene_14_actors                   scene_14_actors
     000C54F4  _scene_15_init                     scene_15_init
     000C554C  ___func_scene_17_actors            scene_17_actors
     000C554C  _scene_17_actors                   scene_17_actors
     000C561C  _scene_17_init                     scene_17_init
     000C56B2  _scene_18_init                     scene_18_init
     000C579A  ___func_scene_19_actors            scene_19_actors
     000C579A  _scene_19_actors                   scene_19_actors
     000C5802  _scene_2_init                      scene_2_init
     000C5906  ___func_scene_22_actors            scene_22_actors
     000C5906  _scene_22_actors                   scene_22_actors
     000C596E  _scene_5_init                      scene_5_init
     000C5A0C  ___func_scene_7_actors             scene_7_actors
     000C5A0C  _scene_7_actors                    scene_7_actors
     000C5A74  _script_6                          script_6
     000C5B5E  _script_9                          script_9
     000C5BA6  _script_engine_init                
     000C5BEE  ___func_sound_sweetsounds_sfx_na   sound_sweetsounds_sfx_naked_
     000C5BEE  _sound_sweetsounds_sfx_naked_14    sound_sweetsounds_sfx_naked_
ASxxxx Linker V03.00/V05.40 + sdld,  page 71.
Hexadecimal  [32-Bits]

Area                                    Addr        Size        Decimal Bytes (Attributes)
--------------------------------        ----        ----        ------- ----- ------------
_CODE_12                            000C4000    00004000 =       16384. bytes (REL,CON)

      Value  Global                              Global Defined In Module
      -----  --------------------------------   ------------------------
     000C5C57  ___func_sound_sweetsounds_sfx_na   sound_sweetsounds_sfx_naked_
     000C5C57  _sound_sweetsounds_sfx_naked_2     sound_sweetsounds_sfx_naked_
     000C5CAF  ___func_sound_sweetsounds_sfx_na   sound_sweetsounds_sfx_naked_
     000C5CAF  _sound_sweetsounds_sfx_naked_24    sound_sweetsounds_sfx_naked_
     000C5D17  ___func_sound_sweetsounds_sfx_na   sound_sweetsounds_sfx_naked_
     000C5D17  _sound_sweetsounds_sfx_naked_26    sound_sweetsounds_sfx_naked_
     000C5D66  ___func_sound_sweetsounds_sfx_na   sound_sweetsounds_sfx_naked_
     000C5D66  _sound_sweetsounds_sfx_naked_28    sound_sweetsounds_sfx_naked_
     000C5DE3  ___func_sound_sweetsounds_sfx_na   sound_sweetsounds_sfx_naked_
     000C5DE3  _sound_sweetsounds_sfx_naked_4     sound_sweetsounds_sfx_naked_
     000C5E76  ___func_sound_sweetsounds_sfx_na   sound_sweetsounds_sfx_naked_
     000C5E76  _sound_sweetsounds_sfx_naked_6     sound_sweetsounds_sfx_naked_
     000C5ED7  ___func_sound_sweetsounds_sfx_na   sound_sweetsounds_sfx_naked_
     000C5ED7  _sound_sweetsounds_sfx_naked_7     sound_sweetsounds_sfx_naked_
     000C5FAD  ___func_sprite_05b_2_tileset       sprite_05b_2_tileset
     000C5FAD  _sprite_05b_2_tileset              sprite_05b_2_tileset
     000C606F  ___func_sprite_biker_tileset       sprite_biker_tileset
     000C606F  _sprite_biker_tileset              sprite_biker_tileset
     000C60D1  ___func_sprite_cat_animation       sprite_cat_animation
     000C60D1  _sprite_cat_animation_metasprite   sprite_cat_animation
     000C60DD  _sprite_cat_animation_metasprite   sprite_cat_animation
     000C60E9  _sprite_cat_animation_metasprite   sprite_cat_animation
     000C60F5  _sprite_cat_animation_metasprite   sprite_cat_animation
     000C6101  _sprite_cat_animation_metasprite   sprite_cat_animation
     000C610D  _sprite_cat_animation_metasprite   sprite_cat_animation
     000C6119  _sprite_cat_animation_metasprite   sprite_cat_animation
     000C6125  _sprite_cat_animation_metasprite   sprite_cat_animation
     000C6131  _sprite_cat_animation_metasprite   sprite_cat_animation
     000C613D  _sprite_cat_animation_metasprite   sprite_cat_animation
     000C6149  _sprite_cat_animation_metasprite   sprite_cat_animation
     000C6155  _sprite_cat_animation_metasprite   sprite_cat_animation
     000C6161  _sprite_cat_animation_metasprite   sprite_cat_animation
     000C6179  _sprite_cat_animation_animations   sprite_cat_animation
     000C6189  _sprite_cat_animation_animations   sprite_cat_animation
     000C618B  _sprite_cat_animation              sprite_cat_animation
     000C619E  ___func_sprite_cat_animation2      sprite_cat_animation2
     000C619E  _sprite_cat_animation2_metasprit   sprite_cat_animation2
     000C61AA  _sprite_cat_animation2_metasprit   sprite_cat_animation2
     000C61B6  _sprite_cat_animation2_metasprit   sprite_cat_animation2
     000C61C2  _sprite_cat_animation2_metasprit   sprite_cat_animation2
     000C61CE  _sprite_cat_animation2_metasprit   sprite_cat_animation2
     000C61DA  _sprite_cat_animation2_metasprit   sprite_cat_animation2
     000C61E6  _sprite_cat_animation2_metasprit   sprite_cat_animation2
     000C61F2  _sprite_cat_animation2_metasprit   sprite_cat_animation2
     000C61FE  _sprite_cat_animation2_metasprit   sprite_cat_animation2
     000C620A  _sprite_cat_animation2_metasprit   sprite_cat_animation2
     000C6216  _sprite_cat_animation2_metasprit   sprite_cat_animation2
     000C6222  _sprite_cat_animation2_metasprit   sprite_cat_animation2
     000C622E  _sprite_cat_animation2_metasprit   sprite_cat_animation2
     000C6246  _sprite_cat_animation2_animation   sprite_cat_animation2
     000C6256  _sprite_cat_animation2_animation   sprite_cat_animation2
ASxxxx Linker V03.00/V05.40 + sdld,  page 72.
Hexadecimal  [32-Bits]

Area                                    Addr        Size        Decimal Bytes (Attributes)
--------------------------------        ----        ----        ------- ----- ------------
_CODE_12                            000C4000    00004000 =       16384. bytes (REL,CON)

      Value  Global                              Global Defined In Module
      -----  --------------------------------   ------------------------
     000C6258  _sprite_cat_animation2             sprite_cat_animation2
     000C626B  ___func_sprite_chest               sprite_chest
     000C626B  _sprite_chest_metasprite_0         sprite_chest
     000C6277  _sprite_chest_metasprite_1         sprite_chest
     000C6283  _sprite_chest_metasprites          sprite_chest
     000C6287  _sprite_chest_animations           sprite_chest
     000C62A7  _sprite_chest_animations_lookup    sprite_chest
     000C62AB  _sprite_chest                      sprite_chest
     000C62BE  ___func_sprite_kid_boy             sprite_kid_boy
     000C62BE  _sprite_kid_boy_metasprite_0       sprite_kid_boy
     000C62CA  _sprite_kid_boy_metasprite_1       sprite_kid_boy
     000C62D6  _sprite_kid_boy_metasprite_2       sprite_kid_boy
     000C62E2  _sprite_kid_boy_metasprite_3       sprite_kid_boy
     000C62EE  _sprite_kid_boy_metasprite_4       sprite_kid_boy
     000C62FA  _sprite_kid_boy_metasprite_5       sprite_kid_boy
     000C6306  _sprite_kid_boy_metasprite_6       sprite_kid_boy
     000C6312  _sprite_kid_boy_metasprite_7       sprite_kid_boy
     000C631E  _sprite_kid_boy_metasprites        sprite_kid_boy
     000C6336  _sprite_kid_boy_animations         sprite_kid_boy
     000C6346  _sprite_kid_boy_animations_looku   sprite_kid_boy
     000C6348  _sprite_kid_boy                    sprite_kid_boy
     000C635B  ___func_sprite_kid_girl            sprite_kid_girl
     000C635B  _sprite_kid_girl_metasprite_0      sprite_kid_girl
     000C6367  _sprite_kid_girl_metasprite_1      sprite_kid_girl
     000C6373  _sprite_kid_girl_metasprite_2      sprite_kid_girl
     000C637F  _sprite_kid_girl_metasprite_3      sprite_kid_girl
     000C638B  _sprite_kid_girl_metasprite_4      sprite_kid_girl
     000C6397  _sprite_kid_girl_metasprite_5      sprite_kid_girl
     000C63A3  _sprite_kid_girl_metasprite_6      sprite_kid_girl
     000C63AF  _sprite_kid_girl_metasprite_7      sprite_kid_girl
     000C63BB  _sprite_kid_girl_metasprites       sprite_kid_girl
     000C63D3  _sprite_kid_girl_animations        sprite_kid_girl
     000C63E3  _sprite_kid_girl_animations_look   sprite_kid_girl
     000C63E5  _sprite_kid_girl                   sprite_kid_girl
     000C63F8  ___func_sprite_markus_tileset      sprite_markus_tileset
     000C63F8  _sprite_markus_tileset             sprite_markus_tileset
     000C64FA  ___func_sprite_markus              sprite_markus
     000C64FA  _sprite_markus_metasprite_0        sprite_markus
     000C6506  _sprite_markus_metasprite_1        sprite_markus
     000C6512  _sprite_markus_metasprite_2        sprite_markus
     000C651E  _sprite_markus_metasprite_3        sprite_markus
     000C652A  _sprite_markus_metasprite_4        sprite_markus
     000C6536  _sprite_markus_metasprite_5        sprite_markus
     000C6542  _sprite_markus_metasprite_6        sprite_markus
     000C654E  _sprite_markus_metasprite_7        sprite_markus
     000C655A  _sprite_markus_metasprites         sprite_markus
     000C6572  _sprite_markus_animations          sprite_markus
     000C6582  _sprite_markus_animations_lookup   sprite_markus
     000C6584  _sprite_markus                     sprite_markus
     000C6597  ___func_sprite_martin2_tileset     sprite_martin2_tileset
     000C6597  _sprite_martin2_tileset            sprite_martin2_tileset
ASxxxx Linker V03.00/V05.40 + sdld,  page 73.
Hexadecimal  [32-Bits]

Area                                    Addr        Size        Decimal Bytes (Attributes)
--------------------------------        ----        ----        ------- ----- ------------
_CODE_12                            000C4000    00004000 =       16384. bytes (REL,CON)

      Value  Global                              Global Defined In Module
      -----  --------------------------------   ------------------------
     000C6659  ___func_sprite_martin2             sprite_martin2
     000C6659  _sprite_martin2_metasprite_0       sprite_martin2
     000C6665  _sprite_martin2_metasprite_1       sprite_martin2
     000C6671  _sprite_martin2_metasprite_2       sprite_martin2
     000C667D  _sprite_martin2_metasprite_3       sprite_martin2
     000C6689  _sprite_martin2_metasprites        sprite_martin2
     000C6691  _sprite_martin2_animations         sprite_martin2
     000C66A1  _sprite_martin2_animations_looku   sprite_martin2
     000C66A3  _sprite_martin2                    sprite_martin2
     000C66B6  ___func_sprite_npc001_tileset      sprite_npc001_tileset
     000C66B6  _sprite_npc001_tileset             sprite_npc001_tileset
     000C6778  ___func_sprite_npc001              sprite_npc001
     000C6778  _sprite_npc001_metasprite_0        sprite_npc001
     000C6784  _sprite_npc001_metasprite_1        sprite_npc001
     000C6790  _sprite_npc001_metasprite_2        sprite_npc001
     000C679C  _sprite_npc001_metasprite_3        sprite_npc001
     000C67A8  _sprite_npc001_metasprites         sprite_npc001
     000C67B0  _sprite_npc001_animations          sprite_npc001
     000C67C0  _sprite_npc001_animations_lookup   sprite_npc001
     000C67C2  _sprite_npc001                     sprite_npc001
     000C67D5  ___func_sprite_npc003              sprite_npc003
     000C67D5  _sprite_npc003_metasprite_0        sprite_npc003
     000C67E1  _sprite_npc003_metasprite_1        sprite_npc003
     000C67ED  _sprite_npc003_metasprite_2        sprite_npc003
     000C67F9  _sprite_npc003_metasprite_3        sprite_npc003
     000C6805  _sprite_npc003_metasprite_4        sprite_npc003
     000C6811  _sprite_npc003_metasprite_5        sprite_npc003
     000C681D  _sprite_npc003_metasprite_6        sprite_npc003
     000C6829  _sprite_npc003_metasprite_7        sprite_npc003
     000C6835  _sprite_npc003_metasprites         sprite_npc003
     000C684D  _sprite_npc003_animations          sprite_npc003
     000C685D  _sprite_npc003_animations_lookup   sprite_npc003
     000C685F  _sprite_npc003                     sprite_npc003
     000C6872  ___func_sprite_npc004              sprite_npc004
     000C6872  _sprite_npc004_metasprite_0        sprite_npc004
     000C687E  _sprite_npc004_metasprite_1        sprite_npc004
     000C688A  _sprite_npc004_metasprite_2        sprite_npc004
     000C6896  _sprite_npc004_metasprite_3        sprite_npc004
     000C68A2  _sprite_npc004_metasprite_4        sprite_npc004
     000C68AE  _sprite_npc004_metasprite_5        sprite_npc004
     000C68BA  _sprite_npc004_metasprite_6        sprite_npc004
     000C68C6  _sprite_npc004_metasprite_7        sprite_npc004
     000C68D2  _sprite_npc004_metasprites         sprite_npc004
     000C68EA  _sprite_npc004_animations          sprite_npc004
     000C68FA  _sprite_npc004_animations_lookup   sprite_npc004
     000C68FC  _sprite_npc004                     sprite_npc004
     000C690F  ___func_sprite_npc005              sprite_npc005
     000C690F  _sprite_npc005_metasprite_0        sprite_npc005
     000C691B  _sprite_npc005_metasprite_1        sprite_npc005
     000C6927  _sprite_npc005_metasprite_2        sprite_npc005
     000C6933  _sprite_npc005_metasprite_3        sprite_npc005
ASxxxx Linker V03.00/V05.40 + sdld,  page 74.
Hexadecimal  [32-Bits]

Area                                    Addr        Size        Decimal Bytes (Attributes)
--------------------------------        ----        ----        ------- ----- ------------
_CODE_12                            000C4000    00004000 =       16384. bytes (REL,CON)

      Value  Global                              Global Defined In Module
      -----  --------------------------------   ------------------------
     000C693F  _sprite_npc005_metasprite_4        sprite_npc005
     000C694B  _sprite_npc005_metasprite_5        sprite_npc005
     000C6957  _sprite_npc005_metasprite_6        sprite_npc005
     000C6963  _sprite_npc005_metasprite_7        sprite_npc005
     000C696F  _sprite_npc005_metasprites         sprite_npc005
     000C6987  _sprite_npc005_animations          sprite_npc005
     000C6997  _sprite_npc005_animations_lookup   sprite_npc005
     000C6999  _sprite_npc005                     sprite_npc005
     000C69AC  ___func_sprite_npc006              sprite_npc006
     000C69AC  _sprite_npc006_metasprite_0        sprite_npc006
     000C69B8  _sprite_npc006_metasprite_1        sprite_npc006
     000C69C4  _sprite_npc006_metasprite_2        sprite_npc006
     000C69D0  _sprite_npc006_metasprite_3        sprite_npc006
     000C69DC  _sprite_npc006_metasprite_4        sprite_npc006
     000C69E8  _sprite_npc006_metasprite_5        sprite_npc006
     000C69F4  _sprite_npc006_metasprite_6        sprite_npc006
     000C6A00  _sprite_npc006_metasprite_7        sprite_npc006
     000C6A0C  _sprite_npc006_metasprites         sprite_npc006
     000C6A24  _sprite_npc006_animations          sprite_npc006
     000C6A34  _sprite_npc006_animations_lookup   sprite_npc006
     000C6A36  _sprite_npc006                     sprite_npc006
     000C6A49  ___func_sprite_npc007_tileset      sprite_npc007_tileset
     000C6A49  _sprite_npc007_tileset             sprite_npc007_tileset
     000C6B0B  ___func_sprite_npc007              sprite_npc007
     000C6B0B  _sprite_npc007_metasprite_0        sprite_npc007
     000C6B17  _sprite_npc007_metasprite_1        sprite_npc007
     000C6B23  _sprite_npc007_metasprite_2        sprite_npc007
     000C6B2F  _sprite_npc007_metasprite_3        sprite_npc007
     000C6B3B  _sprite_npc007_metasprites         sprite_npc007
     000C6B43  _sprite_npc007_animations          sprite_npc007
     000C6B53  _sprite_npc007_animations_lookup   sprite_npc007
     000C6B55  _sprite_npc007                     sprite_npc007
     000C6B68  ___func_sprite_npc104_tileset      sprite_npc104_tileset
     000C6B68  _sprite_npc104_tileset             sprite_npc104_tileset
     000C6C6A  ___func_sprite_npc104              sprite_npc104
     000C6C6A  _sprite_npc104_metasprite_0        sprite_npc104
     000C6C76  _sprite_npc104_metasprite_1        sprite_npc104
     000C6C82  _sprite_npc104_metasprite_2        sprite_npc104
     000C6C8E  _sprite_npc104_metasprite_3        sprite_npc104
     000C6C9A  _sprite_npc104_metasprite_4        sprite_npc104
     000C6CA6  _sprite_npc104_metasprite_5        sprite_npc104
     000C6CB2  _sprite_npc104_metasprite_6        sprite_npc104
     000C6CBE  _sprite_npc104_metasprite_7        sprite_npc104
     000C6CCA  _sprite_npc104_metasprites         sprite_npc104
     000C6CE2  _sprite_npc104_animations          sprite_npc104
     000C6CF2  _sprite_npc104_animations_lookup   sprite_npc104
     000C6CF4  _sprite_npc104                     sprite_npc104
     000C6D07  ___func_sprite_npc107_tileset      sprite_npc107_tileset
     000C6D07  _sprite_npc107_tileset             sprite_npc107_tileset
     000C6E09  ___func_sprite_npc107              sprite_npc107
     000C6E09  _sprite_npc107_metasprite_0        sprite_npc107
ASxxxx Linker V03.00/V05.40 + sdld,  page 75.
Hexadecimal  [32-Bits]

Area                                    Addr        Size        Decimal Bytes (Attributes)
--------------------------------        ----        ----        ------- ----- ------------
_CODE_12                            000C4000    00004000 =       16384. bytes (REL,CON)

      Value  Global                              Global Defined In Module
      -----  --------------------------------   ------------------------
     000C6E15  _sprite_npc107_metasprite_1        sprite_npc107
     000C6E21  _sprite_npc107_metasprite_2        sprite_npc107
     000C6E2D  _sprite_npc107_metasprite_3        sprite_npc107
     000C6E39  _sprite_npc107_metasprite_4        sprite_npc107
     000C6E45  _sprite_npc107_metasprite_5        sprite_npc107
     000C6E51  _sprite_npc107_metasprite_6        sprite_npc107
     000C6E5D  _sprite_npc107_metasprite_7        sprite_npc107
     000C6E69  _sprite_npc107_metasprites         sprite_npc107
     000C6E81  _sprite_npc107_animations          sprite_npc107
     000C6E91  _sprite_npc107_animations_lookup   sprite_npc107
     000C6E93  _sprite_npc107                     sprite_npc107
     000C6EA6  ___func_sprite_npc111_tileset      sprite_npc111_tileset
     000C6EA6  _sprite_npc111_tileset             sprite_npc111_tileset
     000C6FA8  ___func_sprite_npc111              sprite_npc111
     000C6FA8  _sprite_npc111_metasprite_0        sprite_npc111
     000C6FB4  _sprite_npc111_metasprite_1        sprite_npc111
     000C6FC0  _sprite_npc111_metasprite_2        sprite_npc111
     000C6FCC  _sprite_npc111_metasprite_3        sprite_npc111
     000C6FD8  _sprite_npc111_metasprite_4        sprite_npc111
     000C6FE4  _sprite_npc111_metasprite_5        sprite_npc111
     000C6FF0  _sprite_npc111_metasprite_6        sprite_npc111
     000C6FFC  _sprite_npc111_metasprite_7        sprite_npc111
     000C7008  _sprite_npc111_metasprites         sprite_npc111
     000C7020  _sprite_npc111_animations          sprite_npc111
     000C7030  _sprite_npc111_animations_lookup   sprite_npc111
     000C7032  _sprite_npc111                     sprite_npc111
     000C7045  ___func_sprite_npc132_tileset      sprite_npc132_tileset
     000C7045  _sprite_npc132_tileset             sprite_npc132_tileset
     000C7107  ___func_sprite_npc132              sprite_npc132
     000C7107  _sprite_npc132_metasprite_0        sprite_npc132
     000C7113  _sprite_npc132_metasprite_1        sprite_npc132
     000C711F  _sprite_npc132_metasprite_2        sprite_npc132
     000C712B  _sprite_npc132_metasprite_3        sprite_npc132
     000C7137  _sprite_npc132_metasprites         sprite_npc132
     000C713F  _sprite_npc132_animations          sprite_npc132
     000C714F  _sprite_npc132_animations_lookup   sprite_npc132
     000C7151  _sprite_npc132                     sprite_npc132
     000C7164  ___func_sprite_npc134_tileset      sprite_npc134_tileset
     000C7164  _sprite_npc134_tileset             sprite_npc134_tileset
     000C71E6  ___func_sprite_npc134              sprite_npc134
     000C71E6  _sprite_npc134_metasprite_0        sprite_npc134
     000C71F2  _sprite_npc134_metasprite_1        sprite_npc134
     000C71FE  _sprite_npc134_metasprite_2        sprite_npc134
     000C720A  _sprite_npc134_metasprite_3        sprite_npc134
     000C7216  _sprite_npc134_metasprites         sprite_npc134
     000C721E  _sprite_npc134_animations          sprite_npc134
     000C722E  _sprite_npc134_animations_lookup   sprite_npc134
     000C7230  _sprite_npc134                     sprite_npc134
     000C7243  ___func_sprite_npc202              sprite_npc202
     000C7243  _sprite_npc202_metasprite_0        sprite_npc202
     000C724F  _sprite_npc202_metasprite_1        sprite_npc202
ASxxxx Linker V03.00/V05.40 + sdld,  page 76.
Hexadecimal  [32-Bits]

Area                                    Addr        Size        Decimal Bytes (Attributes)
--------------------------------        ----        ----        ------- ----- ------------
_CODE_12                            000C4000    00004000 =       16384. bytes (REL,CON)

      Value  Global                              Global Defined In Module
      -----  --------------------------------   ------------------------
     000C725B  _sprite_npc202_metasprite_2        sprite_npc202
     000C7267  _sprite_npc202_metasprite_3        sprite_npc202
     000C7273  _sprite_npc202_metasprite_4        sprite_npc202
     000C727F  _sprite_npc202_metasprite_5        sprite_npc202
     000C728B  _sprite_npc202_metasprite_6        sprite_npc202
     000C7297  _sprite_npc202_metasprite_7        sprite_npc202
     000C72A3  _sprite_npc202_metasprites         sprite_npc202
     000C72BB  _sprite_npc202_animations          sprite_npc202
     000C72CB  _sprite_npc202_animations_lookup   sprite_npc202
     000C72CD  _sprite_npc202                     sprite_npc202
     000C72E0  ___func_sprite_pingpongball_tile   sprite_pingpongball_tileset
     000C72E0  _sprite_pingpongball_tileset       sprite_pingpongball_tileset
     000C7362  ___func_sprite_pingpongball        sprite_pingpongball
     000C7362  _sprite_pingpongball_metasprite_   sprite_pingpongball
     000C736E  _sprite_pingpongball_metasprite_   sprite_pingpongball
     000C737A  _sprite_pingpongball_metasprite_   sprite_pingpongball
     000C7386  _sprite_pingpongball_metasprite_   sprite_pingpongball
     000C7392  _sprite_pingpongball_metasprite_   sprite_pingpongball
     000C739E  _sprite_pingpongball_metasprites   sprite_pingpongball
     000C73B0  _sprite_pingpongball_animations    sprite_pingpongball
     000C73C0  _sprite_pingpongball_animations_   sprite_pingpongball
     000C73C2  _sprite_pingpongball               sprite_pingpongball
     000C73D5  ___func_sprite_player              sprite_player
     000C73D5  _sprite_player_metasprite_0        sprite_player
     000C73E1  _sprite_player_metasprite_1        sprite_player
     000C73ED  _sprite_player_metasprite_2        sprite_player
     000C73F9  _sprite_player_metasprite_3        sprite_player
     000C7405  _sprite_player_metasprite_4        sprite_player
     000C7411  _sprite_player_metasprite_5        sprite_player
     000C741D  _sprite_player_metasprite_6        sprite_player
     000C7429  _sprite_player_metasprite_7        sprite_player
     000C7435  _sprite_player_metasprites         sprite_player
     000C744D  _sprite_player_animations          sprite_player
     000C745D  _sprite_player_animations_lookup   sprite_player
     000C745F  _sprite_player                     sprite_player
     000C7472  ___func_sprite_portal2             sprite_portal2
     000C7472  _sprite_portal2_metasprite_0       sprite_portal2
     000C7486  _sprite_portal2_metasprite_1       sprite_portal2
     000C749A  _sprite_portal2_metasprite_2       sprite_portal2
     000C74AE  _sprite_portal2_metasprites        sprite_portal2
     000C74B4  _sprite_portal2_animations         sprite_portal2
     000C74C4  _sprite_portal2_animations_looku   sprite_portal2
     000C74C6  _sprite_portal2                    sprite_portal2
     000C74D9  ___func_sprite_st_r_tileset        sprite_st_r_tileset
     000C74D9  _sprite_st_r_tileset               sprite_st_r_tileset
     000C75BB  ___func_sprite_st_r                sprite_st_r
     000C75BB  _sprite_st_r_metasprite_0          sprite_st_r
     000C75CF  _sprite_st_r_metasprite_1          sprite_st_r
     000C75E3  _sprite_st_r_metasprite_2          sprite_st_r
     000C75F7  _sprite_st_r_metasprite_3          sprite_st_r
     000C760B  _sprite_st_r_metasprite_4          sprite_st_r
ASxxxx Linker V03.00/V05.40 + sdld,  page 77.
Hexadecimal  [32-Bits]

Area                                    Addr        Size        Decimal Bytes (Attributes)
--------------------------------        ----        ----        ------- ----- ------------
_CODE_12                            000C4000    00004000 =       16384. bytes (REL,CON)

      Value  Global                              Global Defined In Module
      -----  --------------------------------   ------------------------
     000C761F  _sprite_st_r_metasprite_5          sprite_st_r
     000C7633  _sprite_st_r_metasprites           sprite_st_r
     000C763F  _sprite_st_r_animations            sprite_st_r
     000C764F  _sprite_st_r_animations_lookup     sprite_st_r
     000C7651  _sprite_st_r                       sprite_st_r
     000C7664  ___func_sprite_start_btn2          sprite_start_btn2
     000C7664  _sprite_start_btn2_metasprite_0    sprite_start_btn2
     000C7668  _sprite_start_btn2_metasprite_1    sprite_start_btn2
     000C7694  _sprite_start_btn2_metasprite_2    sprite_start_btn2
     000C76C0  _sprite_start_btn2_metasprites     sprite_start_btn2
     000C76CA  _sprite_start_btn2_animations      sprite_start_btn2
     000C76DA  _sprite_start_btn2_animations_lo   sprite_start_btn2
     000C76DC  _sprite_start_btn2                 sprite_start_btn2
     000C76EF  ___func_sprite_sup_winnie_tilese   sprite_sup_winnie_tileset
     000C76EF  _sprite_sup_winnie_tileset         sprite_sup_winnie_tileset
     000C7791  ___func_sprite_sup2_tileset        sprite_sup2_tileset
     000C7791  _sprite_sup2_tileset               sprite_sup2_tileset
     000C7893  ___func_sprite_sup2                sprite_sup2
     000C7893  _sprite_sup2_metasprite_0          sprite_sup2
     000C78A7  _sprite_sup2_metasprite_1          sprite_sup2
     000C78BB  _sprite_sup2_metasprite_2          sprite_sup2
     000C78CF  _sprite_sup2_metasprite_3          sprite_sup2
     000C78E3  _sprite_sup2_metasprites           sprite_sup2
     000C78EB  _sprite_sup2_animations            sprite_sup2
     000C78FB  _sprite_sup2_animations_lookup     sprite_sup2
     000C78FD  _sprite_sup2                       sprite_sup2
     000C7910  ___func_sprite_tobi_tileset        sprite_tobi_tileset
     000C7910  _sprite_tobi_tileset               sprite_tobi_tileset
     000C7A12  ___func_sprite_tobi                sprite_tobi
     000C7A12  _sprite_tobi_metasprite_0          sprite_tobi
     000C7A1E  _sprite_tobi_metasprite_1          sprite_tobi
     000C7A2A  _sprite_tobi_metasprite_2          sprite_tobi
     000C7A36  _sprite_tobi_metasprite_3          sprite_tobi
     000C7A42  _sprite_tobi_metasprite_4          sprite_tobi
     000C7A4E  _sprite_tobi_metasprite_5          sprite_tobi
     000C7A5A  _sprite_tobi_metasprite_6          sprite_tobi
     000C7A66  _sprite_tobi_metasprite_7          sprite_tobi
     000C7A72  _sprite_tobi_metasprites           sprite_tobi
     000C7A8A  _sprite_tobi_animations            sprite_tobi
     000C7A9A  _sprite_tobi_animations_lookup     sprite_tobi
     000C7A9C  _sprite_tobi                       sprite_tobi
     000C7AAF  ___func_sprite_winston_v4          sprite_winston_v4
     000C7AAF  _sprite_winston_v4_metasprite_0    sprite_winston_v4
     000C7ABB  _sprite_winston_v4_metasprite_1    sprite_winston_v4
     000C7AC7  _sprite_winston_v4_metasprite_2    sprite_winston_v4
     000C7AD3  _sprite_winston_v4_metasprite_3    sprite_winston_v4
     000C7ADF  _sprite_winston_v4_metasprite_4    sprite_winston_v4
     000C7AEB  _sprite_winston_v4_metasprite_5    sprite_winston_v4
     000C7AF7  _sprite_winston_v4_metasprite_6    sprite_winston_v4
     000C7B03  _sprite_winston_v4_metasprite_7    sprite_winston_v4
     000C7B0F  _sprite_winston_v4_metasprite_8    sprite_winston_v4
ASxxxx Linker V03.00/V05.40 + sdld,  page 78.
Hexadecimal  [32-Bits]

Area                                    Addr        Size        Decimal Bytes (Attributes)
--------------------------------        ----        ----        ------- ----- ------------
_CODE_12                            000C4000    00004000 =       16384. bytes (REL,CON)

      Value  Global                              Global Defined In Module
      -----  --------------------------------   ------------------------
     000C7B1B  _sprite_winston_v4_metasprite_9    sprite_winston_v4
     000C7B27  _sprite_winston_v4_metasprite_10   sprite_winston_v4
     000C7B33  _sprite_winston_v4_metasprites     sprite_winston_v4
     000C7B49  _sprite_winston_v4_animations      sprite_winston_v4
     000C7B59  _sprite_winston_v4_animations_lo   sprite_winston_v4
     000C7B5B  _sprite_winston_v4                 sprite_winston_v4
     000C7B6E  ___func_sprite_winston_v5_tilese   sprite_winston_v5_tileset
     000C7B6E  _sprite_winston_v5_tileset         sprite_winston_v5_tileset
     000C7C70  ___func_sprite_winston_v5          sprite_winston_v5
     000C7C70  _sprite_winston_v5_metasprite_0    sprite_winston_v5
     000C7C7C  _sprite_winston_v5_metasprite_1    sprite_winston_v5
     000C7C88  _sprite_winston_v5_metasprite_2    sprite_winston_v5
     000C7C94  _sprite_winston_v5_metasprite_3    sprite_winston_v5
     000C7CA0  _sprite_winston_v5_metasprite_4    sprite_winston_v5
     000C7CA4  _sprite_winston_v5_metasprite_5    sprite_winston_v5
     000C7CB0  _sprite_winston_v5_metasprite_6    sprite_winston_v5
     000C7CBC  _sprite_winston_v5_metasprite_7    sprite_winston_v5
     000C7CC8  _sprite_winston_v5_metasprite_8    sprite_winston_v5
     000C7CD4  _sprite_winston_v5_metasprites     sprite_winston_v5
     000C7CE6  _sprite_winston_v5_animations      sprite_winston_v5
     000C7CF6  _sprite_winston_v5_animations_lo   sprite_winston_v5
     000C7CF8  _sprite_winston_v5                 sprite_winston_v5
     000C7D0B  _trigger_10_interact               trigger_10_interact
     000C7D72  _trigger_15_interact               trigger_15_interact
     000C7E13  _trigger_19_interact               trigger_19_interact
     000C7E87  _trigger_22_interact               trigger_22_interact
     000C7F53  _trigger_3_interact                trigger_3_interact
     000C7F97  _trigger_44_interact               trigger_44_interact
ASxxxx Linker V03.00/V05.40 + sdld,  page 79.
Hexadecimal  [32-Bits]

Area                                    Addr        Size        Decimal Bytes (Attributes)
--------------------------------        ----        ----        ------- ----- ------------
_HEADER_SIO0                        00000000    00000004 =           4. bytes (ABS,CON)

      Value  Global                              Global Defined In Module
      -----  --------------------------------   ------------------------
ASxxxx Linker V03.00/V05.40 + sdld,  page 80.
Hexadecimal  [32-Bits]

Area                                    Addr        Size        Decimal Bytes (Attributes)
--------------------------------        ----        ----        ------- ----- ------------
_HEADER_TIMER0                      00000000    00000004 =           4. bytes (ABS,CON)

      Value  Global                              Global Defined In Module
      -----  --------------------------------   ------------------------
ASxxxx Linker V03.00/V05.40 + sdld,  page 81.
Hexadecimal  [32-Bits]

Area                                    Addr        Size        Decimal Bytes (Attributes)
--------------------------------        ----        ----        ------- ----- ------------
_CODE_10                            000A4000    00004000 =       16384. bytes (REL,CON)

      Value  Global                              Global Defined In Module
      -----  --------------------------------   ------------------------
     000A4000  _set_sgb_border                    sgb_border
     000A41EA  ___func_VM_PALETTE                 vm_palette
     000A41EA  _vm_load_palette                   vm_palette
     000A4393  _actor_11_update                   actor_11_update
     000A45D3  _actor_14_update                   actor_14_update
     000A4813  _actor_2_interact                  actor_2_interact
     000A49F8  _actor_24_interact                 actor_24_interact
     000A4C0D  _actor_25_interact                 actor_25_interact
     000A4DAA  _actor_5_interact                  actor_5_interact
     000A4FBF  ___func_bg_catfight2_tileset       bg_catfight2_tileset
     000A4FBF  _bg_catfight2_tileset              bg_catfight2_tileset
     000A51F1  ___func_bg_glueckwuensche_2_tile   bg_glueckwuensche_2_tileset
     000A51F1  _bg_glueckwuensche_2_tileset       bg_glueckwuensche_2_tileset
     000A5403  ___func_bg_huette_tilemap_attr     bg_huette_tilemap_attr
     000A5403  _bg_huette_tilemap_attr            bg_huette_tilemap_attr
     000A560D  ___func_bg_huette_tilemap          bg_huette_tilemap
     000A560D  _bg_huette_tilemap                 bg_huette_tilemap
     000A5817  ___func_bg_prolog_mb_vorraum_til   bg_prolog_mb_vorraum_tilemap
     000A5817  _bg_prolog_mb_vorraum_tilemap_at   bg_prolog_mb_vorraum_tilemap
     000A5A33  ___func_bg_prolog_mb_vorraum_til   bg_prolog_mb_vorraum_tilemap
     000A5A33  _bg_prolog_mb_vorraum_tilemap      bg_prolog_mb_vorraum_tilemap
     000A5C4F  ___func_bg_prolog_stiege_tileset   bg_prolog_stiege_tileset
     000A5C4F  _bg_prolog_stiege_tileset          bg_prolog_stiege_tileset
     000A5E91  ___func_bg_prolog_tv_vorzimmer_t   bg_prolog_tv_vorzimmer_tiles
     000A5E91  _bg_prolog_tv_vorzimmer_tileset    bg_prolog_tv_vorzimmer_tiles
     000A6033  ___func_bg_triathlon_ende_tilese   bg_triathlon_ende_tileset
     000A6033  _bg_triathlon_ende_tileset         bg_triathlon_ende_tileset
     000A6295  ___func_bg_underwater_tileset      bg_underwater_tileset
     000A6295  _bg_underwater_tileset             bg_underwater_tileset
     000A6427  ___func_scene_11_actors            scene_11_actors
     000A6427  _scene_11_actors                   scene_11_actors
     000A65C7  ___func_scene_18_actors            scene_18_actors
     000A65C7  _scene_18_actors                   scene_18_actors
     000A679B  ___func_scene_19_collisions        scene_19_collisions
     000A679B  _scene_19_collisions               scene_19_collisions
     000A69B7  ___func_scene_4_actors             scene_4_actors
     000A69B7  _scene_4_actors                    scene_4_actors
     000A6B57  ___func_scene_4_collisions         scene_4_collisions
     000A6B57  _scene_4_collisions                scene_4_collisions
     000A6D61  ___func_scene_5_actors             scene_5_actors
     000A6D61  _scene_5_actors                    scene_5_actors
     000A6F69  ___func_scene_7_collisions         scene_7_collisions
     000A6F69  _scene_7_collisions                scene_7_collisions
     000A7185  ___func_sound_sweetsounds_sfx_na   sound_sweetsounds_sfx_naked_
     000A7185  _sound_sweetsounds_sfx_naked_10    sound_sweetsounds_sfx_naked_
     000A73B8  ___func_sprite_kid_boy_tileset     sprite_kid_boy_tileset
     000A73B8  _sprite_kid_boy_tileset            sprite_kid_boy_tileset
     000A753A  ___func_sprite_kid_girl_tileset    sprite_kid_girl_tileset
     000A753A  _sprite_kid_girl_tileset           sprite_kid_girl_tileset
     000A76BC  ___func_sprite_npc003_tileset      sprite_npc003_tileset
ASxxxx Linker V03.00/V05.40 + sdld,  page 82.
Hexadecimal  [32-Bits]

Area                                    Addr        Size        Decimal Bytes (Attributes)
--------------------------------        ----        ----        ------- ----- ------------
_CODE_10                            000A4000    00004000 =       16384. bytes (REL,CON)

      Value  Global                              Global Defined In Module
      -----  --------------------------------   ------------------------
     000A76BC  _sprite_npc003_tileset             sprite_npc003_tileset
     000A783E  ___func_sprite_npc004_tileset      sprite_npc004_tileset
     000A783E  _sprite_npc004_tileset             sprite_npc004_tileset
     000A79C0  ___func_sprite_npc005_tileset      sprite_npc005_tileset
     000A79C0  _sprite_npc005_tileset             sprite_npc005_tileset
     000A7B42  ___func_sprite_npc006_tileset      sprite_npc006_tileset
     000A7B42  _sprite_npc006_tileset             sprite_npc006_tileset
     000A7CC4  ___func_sprite_npc202_tileset      sprite_npc202_tileset
     000A7CC4  _sprite_npc202_tileset             sprite_npc202_tileset
     000A7E46  _trigger_17_interact               trigger_17_interact
ASxxxx Linker V03.00/V05.40 + sdld,  page 83.
Hexadecimal  [32-Bits]

Area                                    Addr        Size        Decimal Bytes (Attributes)
--------------------------------        ----        ----        ------- ----- ------------
_CODE_11                            000B4000    00003FFF =       16383. bytes (REL,CON)

      Value  Global                              Global Defined In Module
      -----  --------------------------------   ------------------------
     000B4000  ___func_VM_MATH                    vm_math
     000B4000  _vm_sin_scale                      vm_math
     000B409C  _vm_cos_scale                      vm_math
     000B413A  ___func_VM_MUSIC                   vm_music
     000B413A  _vm_music_play                     vm_music
     000B4191  _vm_music_stop                     vm_music
     000B41B3  _vm_music_mute                     vm_music
     000B41FB  _vm_music_routine                  vm_music
     000B4222  _vm_music_setpos                   vm_music
     000B4223  _vm_sound_mastervol                vm_music
     000B4229  _vm_sfx_play                       vm_music
     000B429C  ___func_bg_catfight2_tilemap_att   bg_catfight2_tilemap_attr
     000B429C  _bg_catfight2_tilemap_attr         bg_catfight2_tilemap_attr
     000B4404  ___func_bg_catfight2_tilemap       bg_catfight2_tilemap
     000B4404  _bg_catfight2_tilemap              bg_catfight2_tilemap
     000B456C  ___func_bg_glueckwuensche_1_tile   bg_glueckwuensche_1_tilemap_
     000B456C  _bg_glueckwuensche_1_tilemap_att   bg_glueckwuensche_1_tilemap_
     000B46D4  ___func_bg_glueckwuensche_1_tile   bg_glueckwuensche_1_tilemap
     000B46D4  _bg_glueckwuensche_1_tilemap       bg_glueckwuensche_1_tilemap
     000B483C  ___func_bg_glueckwuensche_2_tile   bg_glueckwuensche_2_tilemap
     000B483C  _bg_glueckwuensche_2_tilemap       bg_glueckwuensche_2_tilemap
     000B49A4  ___func_bg_glueckwuensche_3_tile   bg_glueckwuensche_3_tilemap
     000B49A4  _bg_glueckwuensche_3_tilemap       bg_glueckwuensche_3_tilemap
     000B4B0C  ___func_bg_prolog_mb_bad_tilemap   bg_prolog_mb_bad_tilemap_att
     000B4B0C  _bg_prolog_mb_bad_tilemap_attr     bg_prolog_mb_bad_tilemap_att
     000B4C74  ___func_bg_prolog_mb_bad_tilemap   bg_prolog_mb_bad_tilemap
     000B4C74  _bg_prolog_mb_bad_tilemap          bg_prolog_mb_bad_tilemap
     000B4DDC  ___func_bg_prolog_mb_schlafzimme   bg_prolog_mb_schlafzimmer_ti
     000B4DDC  _bg_prolog_mb_schlafzimmer_tilem   bg_prolog_mb_schlafzimmer_ti
     000B4F44  ___func_bg_prolog_mb_schlafzimme   bg_prolog_mb_schlafzimmer_ti
     000B4F44  _bg_prolog_mb_schlafzimmer_tilem   bg_prolog_mb_schlafzimmer_ti
     000B50AC  ___func_bg_prolog_stiege_tilemap   bg_prolog_stiege_tilemap_att
     000B50AC  _bg_prolog_stiege_tilemap_attr     bg_prolog_stiege_tilemap_att
     000B5214  ___func_bg_prolog_stiege_tilemap   bg_prolog_stiege_tilemap
     000B5214  _bg_prolog_stiege_tilemap          bg_prolog_stiege_tilemap
     000B537C  ___func_bg_prolog_tv_buero_tilem   bg_prolog_tv_buero_tilemap_a
     000B537C  _bg_prolog_tv_buero_tilemap_attr   bg_prolog_tv_buero_tilemap_a
     000B54E4  ___func_bg_prolog_tv_buero_tilem   bg_prolog_tv_buero_tilemap
     000B54E4  _bg_prolog_tv_buero_tilemap        bg_prolog_tv_buero_tilemap
     000B564C  ___func_bg_prolog_tv_vorzimmer_t   bg_prolog_tv_vorzimmer_tilem
     000B564C  _bg_prolog_tv_vorzimmer_tilemap_   bg_prolog_tv_vorzimmer_tilem
     000B57B4  ___func_bg_prolog_tv_vorzimmer_t   bg_prolog_tv_vorzimmer_tilem
     000B57B4  _bg_prolog_tv_vorzimmer_tilemap    bg_prolog_tv_vorzimmer_tilem
     000B591C  ___func_bg_start_tilemap_attr      bg_start_tilemap_attr
     000B591C  _bg_start_tilemap_attr             bg_start_tilemap_attr
     000B5A84  ___func_bg_start_tilemap           bg_start_tilemap
     000B5A84  _bg_start_tilemap                  bg_start_tilemap
     000B5BEC  ___func_bg_start_winnies_world4_   bg_start_winnies_world4_tile
     000B5BEC  _bg_start_winnies_world4_tilemap   bg_start_winnies_world4_tile
     000B5D54  ___func_bg_triathlon_start_tilem   bg_triathlon_start_tilemap_a
ASxxxx Linker V03.00/V05.40 + sdld,  page 84.
Hexadecimal  [32-Bits]

Area                                    Addr        Size        Decimal Bytes (Attributes)
--------------------------------        ----        ----        ------- ----- ------------
_CODE_11                            000B4000    00003FFF =       16383. bytes (REL,CON)

      Value  Global                              Global Defined In Module
      -----  --------------------------------   ------------------------
     000B5D54  _bg_triathlon_start_tilemap_attr   bg_triathlon_start_tilemap_a
     000B5EBC  ___func_bg_triathlon_start_tilem   bg_triathlon_start_tilemap
     000B5EBC  _bg_triathlon_start_tilemap        bg_triathlon_start_tilemap
     000B6024  ___func_bg_triathlon_start_tiles   bg_triathlon_start_tileset
     000B6024  _bg_triathlon_start_tileset        bg_triathlon_start_tileset
     000B6146  ___func_bg_triathlon_strasse_til   bg_triathlon_strasse_tilemap
     000B6146  _bg_triathlon_strasse_tilemap_at   bg_triathlon_strasse_tilemap
     000B62AE  ___func_bg_triathlon_strasse_til   bg_triathlon_strasse_tilemap
     000B62AE  _bg_triathlon_strasse_tilemap      bg_triathlon_strasse_tilemap
     000B6416  ___func_scene_0_collisions         scene_0_collisions
     000B6416  _scene_0_collisions                scene_0_collisions
     000B657E  ___func_scene_1_collisions         scene_1_collisions
     000B657E  _scene_1_collisions                scene_1_collisions
     000B66E6  ___func_scene_10_collisions        scene_10_collisions
     000B66E6  _scene_10_collisions               scene_10_collisions
     000B684E  ___func_scene_13_collisions        scene_13_collisions
     000B684E  _scene_13_collisions               scene_13_collisions
     000B69B6  ___func_scene_14_collisions        scene_14_collisions
     000B69B6  _scene_14_collisions               scene_14_collisions
     000B6B1E  ___func_scene_15_collisions        scene_15_collisions
     000B6B1E  _scene_15_collisions               scene_15_collisions
     000B6C86  ___func_scene_16_actors            scene_16_actors
     000B6C86  _scene_16_actors                   scene_16_actors
     000B6DBE  ___func_scene_2_collisions         scene_2_collisions
     000B6DBE  _scene_2_collisions                scene_2_collisions
     000B6F26  ___func_scene_20_collisions        scene_20_collisions
     000B6F26  _scene_20_collisions               scene_20_collisions
     000B708E  ___func_scene_21_collisions        scene_21_collisions
     000B708E  _scene_21_collisions               scene_21_collisions
     000B71F6  ___func_scene_22_collisions        scene_22_collisions
     000B71F6  _scene_22_collisions               scene_22_collisions
     000B735E  ___func_scene_3_collisions         scene_3_collisions
     000B735E  _scene_3_collisions                scene_3_collisions
     000B74C6  ___func_scene_6_collisions         scene_6_collisions
     000B74C6  _scene_6_collisions                scene_6_collisions
     000B762E  ___func_scene_9_collisions         scene_9_collisions
     000B762E  _scene_9_collisions                scene_9_collisions
     000B7796  ___func_sprite_05b_2               sprite_05b_2
     000B7796  _sprite_05b_2_metasprite_0         sprite_05b_2
     000B77A2  _sprite_05b_2_metasprite_1         sprite_05b_2
     000B77AE  _sprite_05b_2_metasprite_2         sprite_05b_2
     000B77BA  _sprite_05b_2_metasprite_3         sprite_05b_2
     000B77C6  _sprite_05b_2_metasprites          sprite_05b_2
     000B77CE  _sprite_05b_2_animations           sprite_05b_2
     000B77DE  _sprite_05b_2_animations_lookup    sprite_05b_2
     000B77E0  _sprite_05b_2                      sprite_05b_2
     000B77F3  ___func_sprite_cat_animation_til   sprite_cat_animation_tileset
     000B77F3  _sprite_cat_animation_tileset      sprite_cat_animation_tileset
     000B7915  ___func_sprite_cat_animation2_ti   sprite_cat_animation2_tilese
     000B7915  _sprite_cat_animation2_tileset     sprite_cat_animation2_tilese
     000B7A37  ___func_sprite_player_tileset      sprite_player_tileset
ASxxxx Linker V03.00/V05.40 + sdld,  page 85.
Hexadecimal  [32-Bits]

Area                                    Addr        Size        Decimal Bytes (Attributes)
--------------------------------        ----        ----        ------- ----- ------------
_CODE_11                            000B4000    00003FFF =       16383. bytes (REL,CON)

      Value  Global                              Global Defined In Module
      -----  --------------------------------   ------------------------
     000B7A37  _sprite_player_tileset             sprite_player_tileset
     000B7BB9  ___func_sprite_portal2_tileset     sprite_portal2_tileset
     000B7BB9  _sprite_portal2_tileset            sprite_portal2_tileset
     000B7D3B  ___func_sprite_start_btn2_tilese   sprite_start_btn2_tileset
     000B7D3B  _sprite_start_btn2_tileset         sprite_start_btn2_tileset
     000B7E7D  ___func_sprite_winston_v4_tilese   sprite_winston_v4_tileset
     000B7E7D  _sprite_winston_v4_tileset         sprite_winston_v4_tileset
ASxxxx Linker V03.00/V05.40 + sdld,  page 86.
Hexadecimal  [32-Bits]

Area                                    Addr        Size        Decimal Bytes (Attributes)
--------------------------------        ----        ----        ------- ----- ------------
_CODE_2                             00024000    00004000 =       16384. bytes (REL,CON)

      Value  Global                              Global Defined In Module
      -----  --------------------------------   ------------------------
     00024000  ___func_VM_MAIN                    vm
     00024000  _vm_call                           vm
     00024042  _vm_ret                            vm
     000240A2  _vm_call_far                       vm
     00024121  _vm_ret_far                        vm
     00024199  _vm_push                           vm
     000241C4  _vm_pop                            vm
     000241FF  _vm_loop                           vm
     0002428A  _vm_jump                           vm
     00024296  _wait_frames                       vm
     0002430C  _vm_invoke                         vm
     00024439  _vm_join                           vm
     0002449B  _vm_terminate                      vm
     000244C8  _vm_if                             vm
     0002460D  _vm_if_const                       vm
     00024722  _vm_push_value                     vm
     00024774  _vm_push_value_ind                 vm
     000247E9  _vm_push_reference                 vm
     00024840  _vm_reserve                        vm
     0002486E  _vm_set                            vm
     000248CF  _vm_set_const                      vm
     000248FB  _vm_get_tlocal                     vm
     00024988  _vm_test_terminate                 vm
     00024993  _vm_idle                           vm
     0002499F  _vm_get_uint8                      vm
     000249D2  _vm_get_int8                       vm
     00024A06  _vm_get_int16                      vm
     00024A48  _vm_set_uint8                      vm
     00024A74  _vm_set_int8                       vm
     00024AA0  _vm_set_int16                      vm
     00024ADF  _vm_set_const_int8                 vm
     00024AE8  _vm_set_const_int16                vm
     00024AF4  _vm_init_rng                       vm
     00024B20  _vm_rand                           vm
     00024BA5  _vm_lock                           vm
     00024BB4  _vm_unlock                         vm
     00024BC7  _vm_raise                          vm
     00024C09  _vm_set_indirect                   vm
     00024C84  _vm_get_indirect                   vm
     00024CFF  _vm_poll_loaded                    vm
     00024D2F  _vm_memset                         vm
     00024D69  _vm_memcpy                         vm
     00024DE6  _script_runner_init                vm
     00024E9D  _script_execute                    vm
     00025003  _script_terminate                  vm
     00025068  _script_detach_hthread             vm
     000250A4  _actor_1_update                    actor_1_update
     000250B3  ___func_bg_triathlon_ziel_gro__t   bg_triathlon_ziel_gro__tiles
     000250B3  _bg_triathlon_ziel_gro__tileset    bg_triathlon_ziel_gro__tiles
     00025385  _scene_7_init                      scene_7_init

ASxxxx Linker V03.00/V05.40 + sdld,  page 87.
Hexadecimal  [32-Bits]

Area                                    Addr        Size        Decimal Bytes (Attributes)
--------------------------------        ----        ----        ------- ----- ------------
_CODE_5                             00054000    00004000 =       16384. bytes (REL,CON)

      Value  Global                              Global Defined In Module
      -----  --------------------------------   ------------------------
     00054000  _actor_26_interact                 actor_26_interact
     00054425  ___func_bg_underwater_tilemap_at   bg_underwater_tilemap_attr
     00054425  _bg_underwater_tilemap_attr        bg_underwater_tilemap_attr
     000550CD  ___func_bg_underwater_tilemap      bg_underwater_tilemap
     000550CD  _bg_underwater_tilemap             bg_underwater_tilemap
     00055D75  ___func_song_action_monty_s_over   song_action_monty_s_overhea_
     00055D75  _song_action_monty_s_overhea0      song_action_monty_s_overhea_
     00055E9A  _song_action_monty_s_overhea1      song_action_monty_s_overhea_
     00055FBE  _song_action_monty_s_overhea2      song_action_monty_s_overhea_
     000560E2  _song_action_monty_s_overhea3      song_action_monty_s_overhea_
     000561F6  _song_action_monty_s_overhea4      song_action_monty_s_overhea_
     000563B5  _song_action_monty_s_overhea5      song_action_monty_s_overhea_
     000565B9  _song_action_monty_s_overhea6      song_action_monty_s_overhea_
     00056773  _song_action_monty_s_overhea7      song_action_monty_s_overhea_
     00056920  _song_action_monty_s_overhea_Dat   song_action_monty_s_overhea_
     00056932  ___func_song_exploration_determi   song_exploration_determined_
     00056932  _song_exploration_determined0      song_exploration_determined_
     00056A74  _song_exploration_determined1      song_exploration_determined_
     00056BAE  _song_exploration_determined2      song_exploration_determined_
     00056CE5  _song_exploration_determined3      song_exploration_determined_
     00056E31  _song_exploration_determined4      song_exploration_determined_
     00056F84  _song_exploration_determined5      song_exploration_determined_
     000570C3  _song_exploration_determined6      song_exploration_determined_
     00057204  _song_exploration_determined7      song_exploration_determined_
     0005733C  _song_exploration_determined_Dat   song_exploration_determined_
     00057352  ___func_scene_10_sprites           scene_10_sprites
     00057352  _scene_10_sprites                  scene_10_sprites
     00057358  ___func_scene_5_collisions         scene_5_collisions
     00057358  _scene_5_collisions                scene_5_collisions

ASxxxx Linker V03.00/V05.40 + sdld,  page 88.
Hexadecimal  [32-Bits]

Area                                    Addr        Size        Decimal Bytes (Attributes)
--------------------------------        ----        ----        ------- ----- ------------
_CODE_3                             00034000    00003FFF =       16383. bytes (REL,CON)

      Value  Global                              Global Defined In Module
      -----  --------------------------------   ------------------------
     00034000  _actor_37_interact                 actor_37_interact
     00034EFF  ___func_bg_start_winnies_world4_   bg_start_winnies_world4_tile
     00034EFF  _bg_start_winnies_world4_tileset   bg_start_winnies_world4_tile
     00036581  _script_input_0                    script_input_0
     0003695C  _trigger_16_interact               trigger_16_interact
     0003698D  _platform_init                     platform
     00036B07  _platform_update                   platform

ASxxxx Linker V03.00/V05.40 + sdld,  page 89.
Hexadecimal  [32-Bits]

Area                                    Addr        Size        Decimal Bytes (Attributes)
--------------------------------        ----        ----        ------- ----- ------------
_HEADER_LCD0                        00000000    00000003 =           3. bytes (ABS,CON)

      Value  Global                              Global Defined In Module
      -----  --------------------------------   ------------------------
ASxxxx Linker V03.00/V05.40 + sdld,  page 90.

Files Linked                              [ module(s) ]

C:\Users\obi\AppData\Local\Temp/_gbstools/gbdk/lib/gb/crt0.o
                                          [ Runtime ]
C:/Users/obi/AppData/Local/Temp/_gbsbuild/obj/absolute.rel
                                          [ absolute ]
C:/Users/obi/AppData/Local/Temp/_gbsbuild/obj/actor.rel
                                          [ actor ]
C:/Users/obi/AppData/Local/Temp/_gbsbuild/obj/bankdata.rel
                                          [ bankdata ]
C:/Users/obi/AppData/Local/Temp/_gbsbuild/obj/bootstrap.rel
                                          [  ]
C:/Users/obi/AppData/Local/Temp/_gbsbuild/obj/camera.rel
                                          [ camera ]
C:/Users/obi/AppData/Local/Temp/_gbsbuild/obj/core.rel
                                          [ core ]
C:/Users/obi/AppData/Local/Temp/_gbsbuild/obj/crash_handler.rel
                                          [  ]
C:/Users/obi/AppData/Local/Temp/_gbsbuild/obj/data_manager.rel
                                          [ data_manager ]
C:/Users/obi/AppData/Local/Temp/_gbsbuild/obj/events.rel
                                          [ events ]
C:/Users/obi/AppData/Local/Temp/_gbsbuild/obj/fade_manager.rel
                                          [ fade_manager ]
C:/Users/obi/AppData/Local/Temp/_gbsbuild/obj/flasher_s.rel
                                          [  ]
C:/Users/obi/AppData/Local/Temp/_gbsbuild/obj/flasher.rel
                                          [ flasher ]
C:/Users/obi/AppData/Local/Temp/_gbsbuild/obj/game_time.rel
                                          [ game_time ]
C:/Users/obi/AppData/Local/Temp/_gbsbuild/obj/gbprinter.rel
                                          [ gbprinter ]
C:/Users/obi/AppData/Local/Temp/_gbsbuild/obj/input.rel
                                          [ input ]
C:/Users/obi/AppData/Local/Temp/_gbsbuild/obj/interrupt_sio.rel
                                          [  ]
C:/Users/obi/AppData/Local/Temp/_gbsbuild/obj/interrupt_timer.rel
                                          [  ]
C:/Users/obi/AppData/Local/Temp/_gbsbuild/obj/interrupts.rel
                                          [ interrupts ]
C:/Users/obi/AppData/Local/Temp/_gbsbuild/obj/load_save.rel
                                          [ load_save ]
C:/Users/obi/AppData/Local/Temp/_gbsbuild/obj/math_atan2.rel
                                          [ math_atan2 ]
C:/Users/obi/AppData/Local/Temp/_gbsbuild/obj/math.rel
                                          [ math ]
C:/Users/obi/AppData/Local/Temp/_gbsbuild/obj/music_manager.rel
                                          [ music_manager ]
C:/Users/obi/AppData/Local/Temp/_gbsbuild/obj/palette.rel
                                          [ palette ]
C:/Users/obi/AppData/Local/Temp/_gbsbuild/obj/parallax.rel
                                          [ parallax ]
C:/Users/obi/AppData/Local/Temp/_gbsbuild/obj/projectiles.rel
                                          [ projectiles ]
C:/Users/obi/AppData/Local/Temp/_gbsbuild/obj/scroll_a.rel
                                          [  ]
C:/Users/obi/AppData/Local/Temp/_gbsbuild/obj/scroll.rel
                                          [ scroll ]
C:/Users/obi/AppData/Local/Temp/_gbsbuild/obj/set_tile_submap.rel
                                          [  ]
C:/Users/obi/AppData/Local/Temp/_gbsbuild/obj/sfx_player.rel
                                          [ sfx_player ]
C:/Users/obi/AppData/Local/Temp/_gbsbuild/obj/sgb_border.rel
                                          [ sgb_border ]
C:/Users/obi/AppData/Local/Temp/_gbsbuild/obj/sio.rel
                                          [ sio ]
C:/Users/obi/AppData/Local/Temp/_gbsbuild/obj/states_caller.rel
                                          [  ]
C:/Users/obi/AppData/Local/Temp/_gbsbuild/obj/system.rel
                                          [ system ]
C:/Users/obi/AppData/Local/Temp/_gbsbuild/obj/trigger.rel
                                          [ trigger ]
C:/Users/obi/AppData/Local/Temp/_gbsbuild/obj/ui_a.rel
                                          [  ]
C:/Users/obi/AppData/Local/Temp/_gbsbuild/obj/ui.rel
                                          [ ui ]
C:/Users/obi/AppData/Local/Temp/_gbsbuild/obj/vm_actor.rel
                                          [ vm_actor ]
C:/Users/obi/AppData/Local/Temp/_gbsbuild/obj/vm_camera.rel
                                          [ vm_camera ]
C:/Users/obi/AppData/Local/Temp/_gbsbuild/obj/vm_gameboy.rel
                                          [ vm_gameboy ]
C:/Users/obi/AppData/Local/Temp/_gbsbuild/obj/vm_gbprinter.rel
                                          [ vm_gbprinter ]
C:/Users/obi/AppData/Local/Temp/_gbsbuild/obj/vm_instructions.rel
                                          [ vm_instructions ]
C:/Users/obi/AppData/Local/Temp/_gbsbuild/obj/vm_load_save.rel
                                          [ vm_load_save ]
C:/Users/obi/AppData/Local/Temp/_gbsbuild/obj/vm_math.rel
                                          [ vm_math ]
C:/Users/obi/AppData/Local/Temp/_gbsbuild/obj/vm_music.rel
                                          [ vm_music ]
C:/Users/obi/AppData/Local/Temp/_gbsbuild/obj/vm_palette.rel
                                          [ vm_palette ]
C:/Users/obi/AppData/Local/Temp/_gbsbuild/obj/vm_projectiles.rel
                                          [ vm_projectiles ]
C:/Users/obi/AppData/Local/Temp/_gbsbuild/obj/vm_rtc.rel
                                          [ vm_rtc ]
C:/Users/obi/AppData/Local/Temp/_gbsbuild/obj/vm_scene.rel
                                          [ vm_scene ]
C:/Users/obi/AppData/Local/Temp/_gbsbuild/obj/vm_sgb.rel
                                          [ vm_sgb ]
C:/Users/obi/AppData/Local/Temp/_gbsbuild/obj/vm_sio.rel
                                          [ vm_sio ]
C:/Users/obi/AppData/Local/Temp/_gbsbuild/obj/vm_ui_a.rel
                                          [ vm_ui_a ]
C:/Users/obi/AppData/Local/Temp/_gbsbuild/obj/vm_ui.rel
                                          [ vm_ui ]
C:/Users/obi/AppData/Local/Temp/_gbsbuild/obj/vm.rel
                                          [ vm ]
C:/Users/obi/AppData/Local/Temp/_gbsbuild/obj/actor_1_update.rel
                                          [ actor_1_update ]
C:/Users/obi/AppData/Local/Temp/_gbsbuild/obj/actor_10_update.rel
                                          [ actor_10_update ]
C:/Users/obi/AppData/Local/Temp/_gbsbuild/obj/actor_11_interact.rel
                                          [ actor_11_interact ]
C:/Users/obi/AppData/Local/Temp/_gbsbuild/obj/actor_11_update.rel
                                          [ actor_11_update ]
C:/Users/obi/AppData/Local/Temp/_gbsbuild/obj/actor_12_update.rel
                                          [ actor_12_update ]
C:/Users/obi/AppData/Local/Temp/_gbsbuild/obj/actor_13_interact.rel
                                          [ actor_13_interact ]
C:/Users/obi/AppData/Local/Temp/_gbsbuild/obj/actor_14_interact.rel
                                          [ actor_14_interact ]
C:/Users/obi/AppData/Local/Temp/_gbsbuild/obj/actor_14_update.rel
                                          [ actor_14_update ]
C:/Users/obi/AppData/Local/Temp/_gbsbuild/obj/actor_18_update.rel
                                          [ actor_18_update ]
C:/Users/obi/AppData/Local/Temp/_gbsbuild/obj/actor_19_update.rel
                                          [ actor_19_update ]
C:/Users/obi/AppData/Local/Temp/_gbsbuild/obj/actor_2_interact.rel
                                          [ actor_2_interact ]
C:/Users/obi/AppData/Local/Temp/_gbsbuild/obj/actor_20_update.rel
                                          [ actor_20_update ]
C:/Users/obi/AppData/Local/Temp/_gbsbuild/obj/actor_22_update.rel
                                          [ actor_22_update ]
C:/Users/obi/AppData/Local/Temp/_gbsbuild/obj/actor_24_interact.rel
                                          [ actor_24_interact ]
C:/Users/obi/AppData/Local/Temp/_gbsbuild/obj/actor_25_interact.rel
                                          [ actor_25_interact ]
C:/Users/obi/AppData/Local/Temp/_gbsbuild/obj/actor_26_interact.rel
                                          [ actor_26_interact ]
C:/Users/obi/AppData/Local/Temp/_gbsbuild/obj/actor_27_interact.rel
                                          [ actor_27_interact ]
C:/Users/obi/AppData/Local/Temp/_gbsbuild/obj/actor_28_interact.rel
                                          [ actor_28_interact ]
C:/Users/obi/AppData/Local/Temp/_gbsbuild/obj/actor_29_update.rel
                                          [ actor_29_update ]
C:/Users/obi/AppData/Local/Temp/_gbsbuild/obj/actor_3_interact.rel
                                          [ actor_3_interact ]
C:/Users/obi/AppData/Local/Temp/_gbsbuild/obj/actor_30_update.rel
                                          [ actor_30_update ]
C:/Users/obi/AppData/Local/Temp/_gbsbuild/obj/actor_31_update.rel
                                          [ actor_31_update ]
C:/Users/obi/AppData/Local/Temp/_gbsbuild/obj/actor_32_interact.rel
                                          [ actor_32_interact ]
C:/Users/obi/AppData/Local/Temp/_gbsbuild/obj/actor_33_update.rel
                                          [ actor_33_update ]
C:/Users/obi/AppData/Local/Temp/_gbsbuild/obj/actor_34_update.rel
                                          [ actor_34_update ]
C:/Users/obi/AppData/Local/Temp/_gbsbuild/obj/actor_35_interact.rel
                                          [ actor_35_interact ]
C:/Users/obi/AppData/Local/Temp/_gbsbuild/obj/actor_36_interact.rel
                                          [ actor_36_interact ]
C:/Users/obi/AppData/Local/Temp/_gbsbuild/obj/actor_37_interact.rel
                                          [ actor_37_interact ]
C:/Users/obi/AppData/Local/Temp/_gbsbuild/obj/actor_38_interact.rel
                                          [ actor_38_interact ]
C:/Users/obi/AppData/Local/Temp/_gbsbuild/obj/actor_4_interact.rel
                                          [ actor_4_interact ]
C:/Users/obi/AppData/Local/Temp/_gbsbuild/obj/actor_41_interact.rel
                                          [ actor_41_interact ]
C:/Users/obi/AppData/Local/Temp/_gbsbuild/obj/actor_42_interact.rel
                                          [ actor_42_interact ]
C:/Users/obi/AppData/Local/Temp/_gbsbuild/obj/actor_43_interact.rel
                                          [ actor_43_interact ]
C:/Users/obi/AppData/Local/Temp/_gbsbuild/obj/actor_44_update.rel
                                          [ actor_44_update ]
C:/Users/obi/AppData/Local/Temp/_gbsbuild/obj/actor_46_interact.rel
                                          [ actor_46_interact ]
C:/Users/obi/AppData/Local/Temp/_gbsbuild/obj/actor_49_interact.rel
                                          [ actor_49_interact ]
C:/Users/obi/AppData/Local/Temp/_gbsbuild/obj/actor_49_update.rel
                                          [ actor_49_update ]
C:/Users/obi/AppData/Local/Temp/_gbsbuild/obj/actor_5_interact.rel
                                          [ actor_5_interact ]
C:/Users/obi/AppData/Local/Temp/_gbsbuild/obj/actor_50_interact.rel
                                          [ actor_50_interact ]
C:/Users/obi/AppData/Local/Temp/_gbsbuild/obj/actor_50_update.rel
                                          [ actor_50_update ]
C:/Users/obi/AppData/Local/Temp/_gbsbuild/obj/actor_51_interact.rel
                                          [ actor_51_interact ]
C:/Users/obi/AppData/Local/Temp/_gbsbuild/obj/actor_51_update.rel
                                          [ actor_51_update ]
C:/Users/obi/AppData/Local/Temp/_gbsbuild/obj/actor_52_interact.rel
                                          [ actor_52_interact ]
C:/Users/obi/AppData/Local/Temp/_gbsbuild/obj/actor_53_interact.rel
                                          [ actor_53_interact ]
C:/Users/obi/AppData/Local/Temp/_gbsbuild/obj/actor_53_update.rel
                                          [ actor_53_update ]
C:/Users/obi/AppData/Local/Temp/_gbsbuild/obj/actor_54_interact.rel
                                          [ actor_54_interact ]
C:/Users/obi/AppData/Local/Temp/_gbsbuild/obj/actor_54_update.rel
                                          [ actor_54_update ]
C:/Users/obi/AppData/Local/Temp/_gbsbuild/obj/actor_55_interact.rel
                                          [ actor_55_interact ]
C:/Users/obi/AppData/Local/Temp/_gbsbuild/obj/actor_55_update.rel
                                          [ actor_55_update ]
C:/Users/obi/AppData/Local/Temp/_gbsbuild/obj/actor_56_interact.rel
                                          [ actor_56_interact ]
C:/Users/obi/AppData/Local/Temp/_gbsbuild/obj/actor_56_update.rel
                                          [ actor_56_update ]
C:/Users/obi/AppData/Local/Temp/_gbsbuild/obj/actor_57_interact.rel
                                          [ actor_57_interact ]
C:/Users/obi/AppData/Local/Temp/_gbsbuild/obj/actor_57_update.rel
                                          [ actor_57_update ]
C:/Users/obi/AppData/Local/Temp/_gbsbuild/obj/actor_59_interact.rel
                                          [ actor_59_interact ]
C:/Users/obi/AppData/Local/Temp/_gbsbuild/obj/actor_59_update.rel
                                          [ actor_59_update ]
C:/Users/obi/AppData/Local/Temp/_gbsbuild/obj/actor_61_interact.rel
                                          [ actor_61_interact ]
C:/Users/obi/AppData/Local/Temp/_gbsbuild/obj/actor_61_update.rel
                                          [ actor_61_update ]
C:/Users/obi/AppData/Local/Temp/_gbsbuild/obj/actor_62_interact.rel
                                          [ actor_62_interact ]
C:/Users/obi/AppData/Local/Temp/_gbsbuild/obj/actor_63_interact.rel
                                          [ actor_63_interact ]
C:/Users/obi/AppData/Local/Temp/_gbsbuild/obj/actor_63_update.rel
                                          [ actor_63_update ]
C:/Users/obi/AppData/Local/Temp/_gbsbuild/obj/actor_64_interact.rel
                                          [ actor_64_interact ]
C:/Users/obi/AppData/Local/Temp/_gbsbuild/obj/actor_65_interact.rel
                                          [ actor_65_interact ]
C:/Users/obi/AppData/Local/Temp/_gbsbuild/obj/actor_66_interact.rel
                                          [ actor_66_interact ]
C:/Users/obi/AppData/Local/Temp/_gbsbuild/obj/actor_67_interact.rel
                                          [ actor_67_interact ]
C:/Users/obi/AppData/Local/Temp/_gbsbuild/obj/actor_68_interact.rel
                                          [ actor_68_interact ]
C:/Users/obi/AppData/Local/Temp/_gbsbuild/obj/actor_69_interact.rel
                                          [ actor_69_interact ]
C:/Users/obi/AppData/Local/Temp/_gbsbuild/obj/actor_70_interact.rel
                                          [ actor_70_interact ]
C:/Users/obi/AppData/Local/Temp/_gbsbuild/obj/actor_9_update.rel
                                          [ actor_9_update ]
C:/Users/obi/AppData/Local/Temp/_gbsbuild/obj/bg_catfight2_tilemap_attr.rel
                                          [ bg_catfight2_tilemap_attr ]
C:/Users/obi/AppData/Local/Temp/_gbsbuild/obj/bg_catfight2_tilemap.rel
                                          [ bg_catfight2_tilemap ]
C:/Users/obi/AppData/Local/Temp/_gbsbuild/obj/bg_catfight2_tileset.rel
                                          [ bg_catfight2_tileset ]
C:/Users/obi/AppData/Local/Temp/_gbsbuild/obj/bg_catfight2.rel
                                          [ bg_catfight2 ]
C:/Users/obi/AppData/Local/Temp/_gbsbuild/obj/bg_fischteich_big_tilemap_attr.rel
                                          [ bg_fischteich_big_tilemap_attr ]
C:/Users/obi/AppData/Local/Temp/_gbsbuild/obj/bg_fischteich_big_tilemap.rel
                                          [ bg_fischteich_big_tilemap ]
C:/Users/obi/AppData/Local/Temp/_gbsbuild/obj/bg_fischteich_big_tileset.rel
                                          [ bg_fischteich_big_tileset ]
C:/Users/obi/AppData/Local/Temp/_gbsbuild/obj/bg_fischteich_big.rel
                                          [ bg_fischteich_big ]
C:/Users/obi/AppData/Local/Temp/_gbsbuild/obj/bg_glueckwuensche_1_tilemap_attr.rel
                                          [ bg_glueckwuensche_1_tilemap_attr ]
C:/Users/obi/AppData/Local/Temp/_gbsbuild/obj/bg_glueckwuensche_1_tilemap.rel
                                          [ bg_glueckwuensche_1_tilemap ]
C:/Users/obi/AppData/Local/Temp/_gbsbuild/obj/bg_glueckwuensche_1_tileset.rel
                                          [ bg_glueckwuensche_1_tileset ]
C:/Users/obi/AppData/Local/Temp/_gbsbuild/obj/bg_glueckwuensche_1.rel
                                          [ bg_glueckwuensche_1 ]
C:/Users/obi/AppData/Local/Temp/_gbsbuild/obj/bg_glueckwuensche_2_tilemap.rel
                                          [ bg_glueckwuensche_2_tilemap ]
C:/Users/obi/AppData/Local/Temp/_gbsbuild/obj/bg_glueckwuensche_2_tileset.rel
                                          [ bg_glueckwuensche_2_tileset ]
C:/Users/obi/AppData/Local/Temp/_gbsbuild/obj/bg_glueckwuensche_2.rel
                                          [ bg_glueckwuensche_2 ]
C:/Users/obi/AppData/Local/Temp/_gbsbuild/obj/bg_glueckwuensche_3_tilemap.rel
                                          [ bg_glueckwuensche_3_tilemap ]
C:/Users/obi/AppData/Local/Temp/_gbsbuild/obj/bg_glueckwuensche_3_tileset.rel
                                          [ bg_glueckwuensche_3_tileset ]
C:/Users/obi/AppData/Local/Temp/_gbsbuild/obj/bg_glueckwuensche_3.rel
                                          [ bg_glueckwuensche_3 ]
C:/Users/obi/AppData/Local/Temp/_gbsbuild/obj/bg_huette_tilemap_attr.rel
                                          [ bg_huette_tilemap_attr ]
C:/Users/obi/AppData/Local/Temp/_gbsbuild/obj/bg_huette_tilemap.rel
                                          [ bg_huette_tilemap ]
C:/Users/obi/AppData/Local/Temp/_gbsbuild/obj/bg_huette_tileset.rel
                                          [ bg_huette_tileset ]
C:/Users/obi/AppData/Local/Temp/_gbsbuild/obj/bg_huette.rel
                                          [ bg_huette ]
C:/Users/obi/AppData/Local/Temp/_gbsbuild/obj/bg_prolog_mb_bad_tilemap_attr.rel
                                          [ bg_prolog_mb_bad_tilemap_attr ]
C:/Users/obi/AppData/Local/Temp/_gbsbuild/obj/bg_prolog_mb_bad_tilemap.rel
                                          [ bg_prolog_mb_bad_tilemap ]
C:/Users/obi/AppData/Local/Temp/_gbsbuild/obj/bg_prolog_mb_bad_tileset.rel
                                          [ bg_prolog_mb_bad_tileset ]
C:/Users/obi/AppData/Local/Temp/_gbsbuild/obj/bg_prolog_mb_bad.rel
                                          [ bg_prolog_mb_bad ]
C:/Users/obi/AppData/Local/Temp/_gbsbuild/obj/bg_prolog_mb_schlafzimmer_tilemap_attr.rel
                                          [ bg_prolog_mb_schlafzimmer_tilema ]
C:/Users/obi/AppData/Local/Temp/_gbsbuild/obj/bg_prolog_mb_schlafzimmer_tilemap.rel
                                          [ bg_prolog_mb_schlafzimmer_tilema ]
C:/Users/obi/AppData/Local/Temp/_gbsbuild/obj/bg_prolog_mb_schlafzimmer_tileset.rel
                                          [ bg_prolog_mb_schlafzimmer_tilese ]
C:/Users/obi/AppData/Local/Temp/_gbsbuild/obj/bg_prolog_mb_schlafzimmer.rel
                                          [ bg_prolog_mb_schlafzimmer ]
C:/Users/obi/AppData/Local/Temp/_gbsbuild/obj/bg_prolog_mb_vorraum_tilemap_attr.rel
                                          [ bg_prolog_mb_vorraum_tilemap_att ]
C:/Users/obi/AppData/Local/Temp/_gbsbuild/obj/bg_prolog_mb_vorraum_tilemap.rel
                                          [ bg_prolog_mb_vorraum_tilemap ]
C:/Users/obi/AppData/Local/Temp/_gbsbuild/obj/bg_prolog_mb_vorraum_tileset.rel
                                          [ bg_prolog_mb_vorraum_tileset ]
C:/Users/obi/AppData/Local/Temp/_gbsbuild/obj/bg_prolog_mb_vorraum.rel
                                          [ bg_prolog_mb_vorraum ]
C:/Users/obi/AppData/Local/Temp/_gbsbuild/obj/bg_prolog_mb_wohnzimmer_tilemap_attr.rel
                                          [ bg_prolog_mb_wohnzimmer_tilemap_ ]
C:/Users/obi/AppData/Local/Temp/_gbsbuild/obj/bg_prolog_mb_wohnzimmer_tilemap.rel
                                          [ bg_prolog_mb_wohnzimmer_tilemap ]
C:/Users/obi/AppData/Local/Temp/_gbsbuild/obj/bg_prolog_mb_wohnzimmer_tileset.rel
                                          [ bg_prolog_mb_wohnzimmer_tileset ]
C:/Users/obi/AppData/Local/Temp/_gbsbuild/obj/bg_prolog_mb_wohnzimmer.rel
                                          [ bg_prolog_mb_wohnzimmer ]
C:/Users/obi/AppData/Local/Temp/_gbsbuild/obj/bg_prolog_stiege_tilemap_attr.rel
                                          [ bg_prolog_stiege_tilemap_attr ]
C:/Users/obi/AppData/Local/Temp/_gbsbuild/obj/bg_prolog_stiege_tilemap.rel
                                          [ bg_prolog_stiege_tilemap ]
C:/Users/obi/AppData/Local/Temp/_gbsbuild/obj/bg_prolog_stiege_tileset.rel
                                          [ bg_prolog_stiege_tileset ]
C:/Users/obi/AppData/Local/Temp/_gbsbuild/obj/bg_prolog_stiege.rel
                                          [ bg_prolog_stiege ]
C:/Users/obi/AppData/Local/Temp/_gbsbuild/obj/bg_prolog_tv_buero_tilemap_attr.rel
                                          [ bg_prolog_tv_buero_tilemap_attr ]
C:/Users/obi/AppData/Local/Temp/_gbsbuild/obj/bg_prolog_tv_buero_tilemap.rel
                                          [ bg_prolog_tv_buero_tilemap ]
C:/Users/obi/AppData/Local/Temp/_gbsbuild/obj/bg_prolog_tv_buero_tileset.rel
                                          [ bg_prolog_tv_buero_tileset ]
C:/Users/obi/AppData/Local/Temp/_gbsbuild/obj/bg_prolog_tv_buero.rel
                                          [ bg_prolog_tv_buero ]
C:/Users/obi/AppData/Local/Temp/_gbsbuild/obj/bg_prolog_tv_vorzimmer_tilemap_attr.rel
                                          [ bg_prolog_tv_vorzimmer_tilemap_a ]
C:/Users/obi/AppData/Local/Temp/_gbsbuild/obj/bg_prolog_tv_vorzimmer_tilemap.rel
                                          [ bg_prolog_tv_vorzimmer_tilemap ]
C:/Users/obi/AppData/Local/Temp/_gbsbuild/obj/bg_prolog_tv_vorzimmer_tileset.rel
                                          [ bg_prolog_tv_vorzimmer_tileset ]
C:/Users/obi/AppData/Local/Temp/_gbsbuild/obj/bg_prolog_tv_vorzimmer.rel
                                          [ bg_prolog_tv_vorzimmer ]
C:/Users/obi/AppData/Local/Temp/_gbsbuild/obj/bg_prolog_tv_wohnzimmer_tilemap_attr.rel
                                          [ bg_prolog_tv_wohnzimmer_tilemap_ ]
C:/Users/obi/AppData/Local/Temp/_gbsbuild/obj/bg_prolog_tv_wohnzimmer_tilemap.rel
                                          [ bg_prolog_tv_wohnzimmer_tilemap ]
C:/Users/obi/AppData/Local/Temp/_gbsbuild/obj/bg_prolog_tv_wohnzimmer_tileset.rel
                                          [ bg_prolog_tv_wohnzimmer_tileset ]
C:/Users/obi/AppData/Local/Temp/_gbsbuild/obj/bg_prolog_tv_wohnzimmer.rel
                                          [ bg_prolog_tv_wohnzimmer ]
C:/Users/obi/AppData/Local/Temp/_gbsbuild/obj/bg_start_tilemap_attr.rel
                                          [ bg_start_tilemap_attr ]
C:/Users/obi/AppData/Local/Temp/_gbsbuild/obj/bg_start_tilemap.rel
                                          [ bg_start_tilemap ]
C:/Users/obi/AppData/Local/Temp/_gbsbuild/obj/bg_start_tileset.rel
                                          [ bg_start_tileset ]
C:/Users/obi/AppData/Local/Temp/_gbsbuild/obj/bg_start_winnies_world4_tilemap.rel
                                          [ bg_start_winnies_world4_tilemap ]
C:/Users/obi/AppData/Local/Temp/_gbsbuild/obj/bg_start_winnies_world4_tileset.rel
                                          [ bg_start_winnies_world4_tileset ]
C:/Users/obi/AppData/Local/Temp/_gbsbuild/obj/bg_start_winnies_world4.rel
                                          [ bg_start_winnies_world4 ]
C:/Users/obi/AppData/Local/Temp/_gbsbuild/obj/bg_start.rel
                                          [ bg_start ]
C:/Users/obi/AppData/Local/Temp/_gbsbuild/obj/bg_triathlon_ende_tilemap_attr.rel
                                          [ bg_triathlon_ende_tilemap_attr ]
C:/Users/obi/AppData/Local/Temp/_gbsbuild/obj/bg_triathlon_ende_tilemap.rel
                                          [ bg_triathlon_ende_tilemap ]
C:/Users/obi/AppData/Local/Temp/_gbsbuild/obj/bg_triathlon_ende_tileset.rel
                                          [ bg_triathlon_ende_tileset ]
C:/Users/obi/AppData/Local/Temp/_gbsbuild/obj/bg_triathlon_ende.rel
                                          [ bg_triathlon_ende ]
C:/Users/obi/AppData/Local/Temp/_gbsbuild/obj/bg_triathlon_start_tilemap_attr.rel
                                          [ bg_triathlon_start_tilemap_attr ]
C:/Users/obi/AppData/Local/Temp/_gbsbuild/obj/bg_triathlon_start_tilemap.rel
                                          [ bg_triathlon_start_tilemap ]
C:/Users/obi/AppData/Local/Temp/_gbsbuild/obj/bg_triathlon_start_tileset.rel
                                          [ bg_triathlon_start_tileset ]
C:/Users/obi/AppData/Local/Temp/_gbsbuild/obj/bg_triathlon_start.rel
                                          [ bg_triathlon_start ]
C:/Users/obi/AppData/Local/Temp/_gbsbuild/obj/bg_triathlon_strasse_tilemap_attr.rel
                                          [ bg_triathlon_strasse_tilemap_att ]
C:/Users/obi/AppData/Local/Temp/_gbsbuild/obj/bg_triathlon_strasse_tilemap.rel
                                          [ bg_triathlon_strasse_tilemap ]
C:/Users/obi/AppData/Local/Temp/_gbsbuild/obj/bg_triathlon_strasse_tileset.rel
                                          [ bg_triathlon_strasse_tileset ]
C:/Users/obi/AppData/Local/Temp/_gbsbuild/obj/bg_triathlon_strasse.rel
                                          [ bg_triathlon_strasse ]
C:/Users/obi/AppData/Local/Temp/_gbsbuild/obj/bg_triathlon_ziel_gro__tilemap_attr.rel
                                          [ bg_triathlon_ziel_gro__tilemap_a ]
C:/Users/obi/AppData/Local/Temp/_gbsbuild/obj/bg_triathlon_ziel_gro__tilemap.rel
                                          [ bg_triathlon_ziel_gro__tilemap ]
C:/Users/obi/AppData/Local/Temp/_gbsbuild/obj/bg_triathlon_ziel_gro__tileset.rel
                                          [ bg_triathlon_ziel_gro__tileset ]
C:/Users/obi/AppData/Local/Temp/_gbsbuild/obj/bg_triathlon_ziel_gro_.rel
                                          [ bg_triathlon_ziel_gro_ ]
C:/Users/obi/AppData/Local/Temp/_gbsbuild/obj/bg_underwater_tilemap_attr.rel
                                          [ bg_underwater_tilemap_attr ]
C:/Users/obi/AppData/Local/Temp/_gbsbuild/obj/bg_underwater_tilemap.rel
                                          [ bg_underwater_tilemap ]
C:/Users/obi/AppData/Local/Temp/_gbsbuild/obj/bg_underwater_tileset.rel
                                          [ bg_underwater_tileset ]
C:/Users/obi/AppData/Local/Temp/_gbsbuild/obj/bg_underwater.rel
                                          [ bg_underwater ]
C:/Users/obi/AppData/Local/Temp/_gbsbuild/obj/cursor_image.rel
                                          [ cursor_image ]
C:/Users/obi/AppData/Local/Temp/_gbsbuild/obj/emote_b.rel
                                          [ emote_b ]
C:/Users/obi/AppData/Local/Temp/_gbsbuild/obj/emote_c.rel
                                          [ emote_c ]
C:/Users/obi/AppData/Local/Temp/_gbsbuild/obj/emote_e.rel
                                          [ emote_e ]
C:/Users/obi/AppData/Local/Temp/_gbsbuild/obj/emote_i.rel
                                          [ emote_i ]
C:/Users/obi/AppData/Local/Temp/_gbsbuild/obj/emote_pause.rel
                                          [ emote_pause ]
C:/Users/obi/AppData/Local/Temp/_gbsbuild/obj/emote_question.rel
                                          [ emote_question ]
C:/Users/obi/AppData/Local/Temp/_gbsbuild/obj/emote_shock.rel
                                          [ emote_shock ]
C:/Users/obi/AppData/Local/Temp/_gbsbuild/obj/emote_sweat.rel
                                          [ emote_sweat ]
C:/Users/obi/AppData/Local/Temp/_gbsbuild/obj/font_gbs_variable_width.rel
                                          [ font_gbs_variable_width ]
C:/Users/obi/AppData/Local/Temp/_gbsbuild/obj/frame_image.rel
                                          [ frame_image ]
C:/Users/obi/AppData/Local/Temp/_gbsbuild/obj/game_signature.rel
                                          [ game_signature ]
C:/Users/obi/AppData/Local/Temp/_gbsbuild/obj/song_action_boss_fight2_Data.rel
                                          [ song_action_boss_fight2_Data ]
C:/Users/obi/AppData/Local/Temp/_gbsbuild/obj/song_action_free_ost_1_back_Data.rel
                                          [ song_action_free_ost_1_back_Data ]
C:/Users/obi/AppData/Local/Temp/_gbsbuild/obj/song_action_monty_s_overhea_Data.rel
                                          [ song_action_monty_s_overhea_Data ]
C:/Users/obi/AppData/Local/Temp/_gbsbuild/obj/song_exploration_determined_Data.rel
                                          [ song_exploration_determined_Data ]
C:/Users/obi/AppData/Local/Temp/_gbsbuild/obj/palette_0.rel
                                          [ palette_0 ]
C:/Users/obi/AppData/Local/Temp/_gbsbuild/obj/palette_1.rel
                                          [ palette_1 ]
C:/Users/obi/AppData/Local/Temp/_gbsbuild/obj/palette_10.rel
                                          [ palette_10 ]
C:/Users/obi/AppData/Local/Temp/_gbsbuild/obj/palette_11.rel
                                          [ palette_11 ]
C:/Users/obi/AppData/Local/Temp/_gbsbuild/obj/palette_12.rel
                                          [ palette_12 ]
C:/Users/obi/AppData/Local/Temp/_gbsbuild/obj/palette_13.rel
                                          [ palette_13 ]
C:/Users/obi/AppData/Local/Temp/_gbsbuild/obj/palette_14.rel
                                          [ palette_14 ]
C:/Users/obi/AppData/Local/Temp/_gbsbuild/obj/palette_15.rel
                                          [ palette_15 ]
C:/Users/obi/AppData/Local/Temp/_gbsbuild/obj/palette_16.rel
                                          [ palette_16 ]
C:/Users/obi/AppData/Local/Temp/_gbsbuild/obj/palette_17.rel
                                          [ palette_17 ]
C:/Users/obi/AppData/Local/Temp/_gbsbuild/obj/palette_18.rel
                                          [ palette_18 ]
C:/Users/obi/AppData/Local/Temp/_gbsbuild/obj/palette_19.rel
                                          [ palette_19 ]
C:/Users/obi/AppData/Local/Temp/_gbsbuild/obj/palette_2.rel
                                          [ palette_2 ]
C:/Users/obi/AppData/Local/Temp/_gbsbuild/obj/palette_20.rel
                                          [ palette_20 ]
C:/Users/obi/AppData/Local/Temp/_gbsbuild/obj/palette_21.rel
                                          [ palette_21 ]
C:/Users/obi/AppData/Local/Temp/_gbsbuild/obj/palette_3.rel
                                          [ palette_3 ]
C:/Users/obi/AppData/Local/Temp/_gbsbuild/obj/palette_4.rel
                                          [ palette_4 ]
C:/Users/obi/AppData/Local/Temp/_gbsbuild/obj/palette_5.rel
                                          [ palette_5 ]
C:/Users/obi/AppData/Local/Temp/_gbsbuild/obj/palette_6.rel
                                          [ palette_6 ]
C:/Users/obi/AppData/Local/Temp/_gbsbuild/obj/palette_7.rel
                                          [ palette_7 ]
C:/Users/obi/AppData/Local/Temp/_gbsbuild/obj/palette_8.rel
                                          [ palette_8 ]
C:/Users/obi/AppData/Local/Temp/_gbsbuild/obj/palette_9.rel
                                          [ palette_9 ]
C:/Users/obi/AppData/Local/Temp/_gbsbuild/obj/scene_0_actors.rel
                                          [ scene_0_actors ]
C:/Users/obi/AppData/Local/Temp/_gbsbuild/obj/scene_0_collisions.rel
                                          [ scene_0_collisions ]
C:/Users/obi/AppData/Local/Temp/_gbsbuild/obj/scene_0_init.rel
                                          [ scene_0_init ]
C:/Users/obi/AppData/Local/Temp/_gbsbuild/obj/scene_0_sprites.rel
                                          [ scene_0_sprites ]
C:/Users/obi/AppData/Local/Temp/_gbsbuild/obj/scene_0.rel
                                          [ scene_0 ]
C:/Users/obi/AppData/Local/Temp/_gbsbuild/obj/scene_1_collisions.rel
                                          [ scene_1_collisions ]
C:/Users/obi/AppData/Local/Temp/_gbsbuild/obj/scene_1_init.rel
                                          [ scene_1_init ]
C:/Users/obi/AppData/Local/Temp/_gbsbuild/obj/scene_1_triggers.rel
                                          [ scene_1_triggers ]
C:/Users/obi/AppData/Local/Temp/_gbsbuild/obj/scene_1.rel
                                          [ scene_1 ]
C:/Users/obi/AppData/Local/Temp/_gbsbuild/obj/scene_10_actors.rel
                                          [ scene_10_actors ]
C:/Users/obi/AppData/Local/Temp/_gbsbuild/obj/scene_10_collisions.rel
                                          [ scene_10_collisions ]
C:/Users/obi/AppData/Local/Temp/_gbsbuild/obj/scene_10_init.rel
                                          [ scene_10_init ]
C:/Users/obi/AppData/Local/Temp/_gbsbuild/obj/scene_10_sprites.rel
                                          [ scene_10_sprites ]
C:/Users/obi/AppData/Local/Temp/_gbsbuild/obj/scene_10_triggers.rel
                                          [ scene_10_triggers ]
C:/Users/obi/AppData/Local/Temp/_gbsbuild/obj/scene_10.rel
                                          [ scene_10 ]
C:/Users/obi/AppData/Local/Temp/_gbsbuild/obj/scene_11_actors.rel
                                          [ scene_11_actors ]
C:/Users/obi/AppData/Local/Temp/_gbsbuild/obj/scene_11_collisions.rel
                                          [ scene_11_collisions ]
C:/Users/obi/AppData/Local/Temp/_gbsbuild/obj/scene_11_init.rel
                                          [ scene_11_init ]
C:/Users/obi/AppData/Local/Temp/_gbsbuild/obj/scene_11_sprites.rel
                                          [ scene_11_sprites ]
C:/Users/obi/AppData/Local/Temp/_gbsbuild/obj/scene_11_triggers.rel
                                          [ scene_11_triggers ]
C:/Users/obi/AppData/Local/Temp/_gbsbuild/obj/scene_11.rel
                                          [ scene_11 ]
C:/Users/obi/AppData/Local/Temp/_gbsbuild/obj/scene_12_actors.rel
                                          [ scene_12_actors ]
C:/Users/obi/AppData/Local/Temp/_gbsbuild/obj/scene_12_collisions.rel
                                          [ scene_12_collisions ]
C:/Users/obi/AppData/Local/Temp/_gbsbuild/obj/scene_12_init.rel
                                          [ scene_12_init ]
C:/Users/obi/AppData/Local/Temp/_gbsbuild/obj/scene_12_sprites.rel
                                          [ scene_12_sprites ]
C:/Users/obi/AppData/Local/Temp/_gbsbuild/obj/scene_12_triggers.rel
                                          [ scene_12_triggers ]
C:/Users/obi/AppData/Local/Temp/_gbsbuild/obj/scene_12.rel
                                          [ scene_12 ]
C:/Users/obi/AppData/Local/Temp/_gbsbuild/obj/scene_13_actors.rel
                                          [ scene_13_actors ]
C:/Users/obi/AppData/Local/Temp/_gbsbuild/obj/scene_13_collisions.rel
                                          [ scene_13_collisions ]
C:/Users/obi/AppData/Local/Temp/_gbsbuild/obj/scene_13_init.rel
                                          [ scene_13_init ]
C:/Users/obi/AppData/Local/Temp/_gbsbuild/obj/scene_13_sprites.rel
                                          [ scene_13_sprites ]
C:/Users/obi/AppData/Local/Temp/_gbsbuild/obj/scene_13_triggers.rel
                                          [ scene_13_triggers ]
C:/Users/obi/AppData/Local/Temp/_gbsbuild/obj/scene_13.rel
                                          [ scene_13 ]
C:/Users/obi/AppData/Local/Temp/_gbsbuild/obj/scene_14_actors.rel
                                          [ scene_14_actors ]
C:/Users/obi/AppData/Local/Temp/_gbsbuild/obj/scene_14_collisions.rel
                                          [ scene_14_collisions ]
C:/Users/obi/AppData/Local/Temp/_gbsbuild/obj/scene_14_init.rel
                                          [ scene_14_init ]
C:/Users/obi/AppData/Local/Temp/_gbsbuild/obj/scene_14_sprites.rel
                                          [ scene_14_sprites ]
C:/Users/obi/AppData/Local/Temp/_gbsbuild/obj/scene_14_triggers.rel
                                          [ scene_14_triggers ]
C:/Users/obi/AppData/Local/Temp/_gbsbuild/obj/scene_14.rel
                                          [ scene_14 ]
C:/Users/obi/AppData/Local/Temp/_gbsbuild/obj/scene_15_actors.rel
                                          [ scene_15_actors ]
C:/Users/obi/AppData/Local/Temp/_gbsbuild/obj/scene_15_collisions.rel
                                          [ scene_15_collisions ]
C:/Users/obi/AppData/Local/Temp/_gbsbuild/obj/scene_15_init.rel
                                          [ scene_15_init ]
C:/Users/obi/AppData/Local/Temp/_gbsbuild/obj/scene_15_sprites.rel
                                          [ scene_15_sprites ]
C:/Users/obi/AppData/Local/Temp/_gbsbuild/obj/scene_15_triggers.rel
                                          [ scene_15_triggers ]
C:/Users/obi/AppData/Local/Temp/_gbsbuild/obj/scene_15.rel
                                          [ scene_15 ]
C:/Users/obi/AppData/Local/Temp/_gbsbuild/obj/scene_16_actors.rel
                                          [ scene_16_actors ]
C:/Users/obi/AppData/Local/Temp/_gbsbuild/obj/scene_16_collisions.rel
                                          [ scene_16_collisions ]
C:/Users/obi/AppData/Local/Temp/_gbsbuild/obj/scene_16_init.rel
                                          [ scene_16_init ]
C:/Users/obi/AppData/Local/Temp/_gbsbuild/obj/scene_16_sprites.rel
                                          [ scene_16_sprites ]
C:/Users/obi/AppData/Local/Temp/_gbsbuild/obj/scene_16_triggers.rel
                                          [ scene_16_triggers ]
C:/Users/obi/AppData/Local/Temp/_gbsbuild/obj/scene_16.rel
                                          [ scene_16 ]
C:/Users/obi/AppData/Local/Temp/_gbsbuild/obj/scene_17_actors.rel
                                          [ scene_17_actors ]
C:/Users/obi/AppData/Local/Temp/_gbsbuild/obj/scene_17_collisions.rel
                                          [ scene_17_collisions ]
C:/Users/obi/AppData/Local/Temp/_gbsbuild/obj/scene_17_init.rel
                                          [ scene_17_init ]
C:/Users/obi/AppData/Local/Temp/_gbsbuild/obj/scene_17_sprites.rel
                                          [ scene_17_sprites ]
C:/Users/obi/AppData/Local/Temp/_gbsbuild/obj/scene_17_triggers.rel
                                          [ scene_17_triggers ]
C:/Users/obi/AppData/Local/Temp/_gbsbuild/obj/scene_17.rel
                                          [ scene_17 ]
C:/Users/obi/AppData/Local/Temp/_gbsbuild/obj/scene_18_actors.rel
                                          [ scene_18_actors ]
C:/Users/obi/AppData/Local/Temp/_gbsbuild/obj/scene_18_collisions.rel
                                          [ scene_18_collisions ]
C:/Users/obi/AppData/Local/Temp/_gbsbuild/obj/scene_18_init.rel
                                          [ scene_18_init ]
C:/Users/obi/AppData/Local/Temp/_gbsbuild/obj/scene_18_sprites.rel
                                          [ scene_18_sprites ]
C:/Users/obi/AppData/Local/Temp/_gbsbuild/obj/scene_18_triggers.rel
                                          [ scene_18_triggers ]
C:/Users/obi/AppData/Local/Temp/_gbsbuild/obj/scene_18.rel
                                          [ scene_18 ]
C:/Users/obi/AppData/Local/Temp/_gbsbuild/obj/scene_19_actors.rel
                                          [ scene_19_actors ]
C:/Users/obi/AppData/Local/Temp/_gbsbuild/obj/scene_19_collisions.rel
                                          [ scene_19_collisions ]
C:/Users/obi/AppData/Local/Temp/_gbsbuild/obj/scene_19_init.rel
                                          [ scene_19_init ]
C:/Users/obi/AppData/Local/Temp/_gbsbuild/obj/scene_19_sprites.rel
                                          [ scene_19_sprites ]
C:/Users/obi/AppData/Local/Temp/_gbsbuild/obj/scene_19_triggers.rel
                                          [ scene_19_triggers ]
C:/Users/obi/AppData/Local/Temp/_gbsbuild/obj/scene_19.rel
                                          [ scene_19 ]
C:/Users/obi/AppData/Local/Temp/_gbsbuild/obj/scene_2_collisions.rel
                                          [ scene_2_collisions ]
C:/Users/obi/AppData/Local/Temp/_gbsbuild/obj/scene_2_init.rel
                                          [ scene_2_init ]
C:/Users/obi/AppData/Local/Temp/_gbsbuild/obj/scene_2.rel
                                          [ scene_2 ]
C:/Users/obi/AppData/Local/Temp/_gbsbuild/obj/scene_20_actors.rel
                                          [ scene_20_actors ]
C:/Users/obi/AppData/Local/Temp/_gbsbuild/obj/scene_20_collisions.rel
                                          [ scene_20_collisions ]
C:/Users/obi/AppData/Local/Temp/_gbsbuild/obj/scene_20_init.rel
                                          [ scene_20_init ]
C:/Users/obi/AppData/Local/Temp/_gbsbuild/obj/scene_20_sprites.rel
                                          [ scene_20_sprites ]
C:/Users/obi/AppData/Local/Temp/_gbsbuild/obj/scene_20_triggers.rel
                                          [ scene_20_triggers ]
C:/Users/obi/AppData/Local/Temp/_gbsbuild/obj/scene_20.rel
                                          [ scene_20 ]
C:/Users/obi/AppData/Local/Temp/_gbsbuild/obj/scene_21_actors.rel
                                          [ scene_21_actors ]
C:/Users/obi/AppData/Local/Temp/_gbsbuild/obj/scene_21_collisions.rel
                                          [ scene_21_collisions ]
C:/Users/obi/AppData/Local/Temp/_gbsbuild/obj/scene_21_init.rel
                                          [ scene_21_init ]
C:/Users/obi/AppData/Local/Temp/_gbsbuild/obj/scene_21_sprites.rel
                                          [ scene_21_sprites ]
C:/Users/obi/AppData/Local/Temp/_gbsbuild/obj/scene_21_triggers.rel
                                          [ scene_21_triggers ]
C:/Users/obi/AppData/Local/Temp/_gbsbuild/obj/scene_21.rel
                                          [ scene_21 ]
C:/Users/obi/AppData/Local/Temp/_gbsbuild/obj/scene_22_actors.rel
                                          [ scene_22_actors ]
C:/Users/obi/AppData/Local/Temp/_gbsbuild/obj/scene_22_collisions.rel
                                          [ scene_22_collisions ]
C:/Users/obi/AppData/Local/Temp/_gbsbuild/obj/scene_22_init.rel
                                          [ scene_22_init ]
C:/Users/obi/AppData/Local/Temp/_gbsbuild/obj/scene_22_sprites.rel
                                          [ scene_22_sprites ]
C:/Users/obi/AppData/Local/Temp/_gbsbuild/obj/scene_22_triggers.rel
                                          [ scene_22_triggers ]
C:/Users/obi/AppData/Local/Temp/_gbsbuild/obj/scene_22.rel
                                          [ scene_22 ]
C:/Users/obi/AppData/Local/Temp/_gbsbuild/obj/scene_3_collisions.rel
                                          [ scene_3_collisions ]
C:/Users/obi/AppData/Local/Temp/_gbsbuild/obj/scene_3_init.rel
                                          [ scene_3_init ]
C:/Users/obi/AppData/Local/Temp/_gbsbuild/obj/scene_3_triggers.rel
                                          [ scene_3_triggers ]
C:/Users/obi/AppData/Local/Temp/_gbsbuild/obj/scene_3.rel
                                          [ scene_3 ]
C:/Users/obi/AppData/Local/Temp/_gbsbuild/obj/scene_4_actors.rel
                                          [ scene_4_actors ]
C:/Users/obi/AppData/Local/Temp/_gbsbuild/obj/scene_4_collisions.rel
                                          [ scene_4_collisions ]
C:/Users/obi/AppData/Local/Temp/_gbsbuild/obj/scene_4_init.rel
                                          [ scene_4_init ]
C:/Users/obi/AppData/Local/Temp/_gbsbuild/obj/scene_4_sprites.rel
                                          [ scene_4_sprites ]
C:/Users/obi/AppData/Local/Temp/_gbsbuild/obj/scene_4_triggers.rel
                                          [ scene_4_triggers ]
C:/Users/obi/AppData/Local/Temp/_gbsbuild/obj/scene_4.rel
                                          [ scene_4 ]
C:/Users/obi/AppData/Local/Temp/_gbsbuild/obj/scene_5_actors.rel
                                          [ scene_5_actors ]
C:/Users/obi/AppData/Local/Temp/_gbsbuild/obj/scene_5_collisions.rel
                                          [ scene_5_collisions ]
C:/Users/obi/AppData/Local/Temp/_gbsbuild/obj/scene_5_init.rel
                                          [ scene_5_init ]
C:/Users/obi/AppData/Local/Temp/_gbsbuild/obj/scene_5_sprites.rel
                                          [ scene_5_sprites ]
C:/Users/obi/AppData/Local/Temp/_gbsbuild/obj/scene_5_triggers.rel
                                          [ scene_5_triggers ]
C:/Users/obi/AppData/Local/Temp/_gbsbuild/obj/scene_5.rel
                                          [ scene_5 ]
C:/Users/obi/AppData/Local/Temp/_gbsbuild/obj/scene_6_actors.rel
                                          [ scene_6_actors ]
C:/Users/obi/AppData/Local/Temp/_gbsbuild/obj/scene_6_collisions.rel
                                          [ scene_6_collisions ]
C:/Users/obi/AppData/Local/Temp/_gbsbuild/obj/scene_6_init.rel
                                          [ scene_6_init ]
C:/Users/obi/AppData/Local/Temp/_gbsbuild/obj/scene_6_sprites.rel
                                          [ scene_6_sprites ]
C:/Users/obi/AppData/Local/Temp/_gbsbuild/obj/scene_6.rel
                                          [ scene_6 ]
C:/Users/obi/AppData/Local/Temp/_gbsbuild/obj/scene_7_actors.rel
                                          [ scene_7_actors ]
C:/Users/obi/AppData/Local/Temp/_gbsbuild/obj/scene_7_collisions.rel
                                          [ scene_7_collisions ]
C:/Users/obi/AppData/Local/Temp/_gbsbuild/obj/scene_7_init.rel
                                          [ scene_7_init ]
C:/Users/obi/AppData/Local/Temp/_gbsbuild/obj/scene_7_sprites.rel
                                          [ scene_7_sprites ]
C:/Users/obi/AppData/Local/Temp/_gbsbuild/obj/scene_7.rel
                                          [ scene_7 ]
C:/Users/obi/AppData/Local/Temp/_gbsbuild/obj/scene_9_actors.rel
                                          [ scene_9_actors ]
C:/Users/obi/AppData/Local/Temp/_gbsbuild/obj/scene_9_collisions.rel
                                          [ scene_9_collisions ]
C:/Users/obi/AppData/Local/Temp/_gbsbuild/obj/scene_9_init.rel
                                          [ scene_9_init ]
C:/Users/obi/AppData/Local/Temp/_gbsbuild/obj/scene_9_sprites.rel
                                          [ scene_9_sprites ]
C:/Users/obi/AppData/Local/Temp/_gbsbuild/obj/scene_9_triggers.rel
                                          [ scene_9_triggers ]
C:/Users/obi/AppData/Local/Temp/_gbsbuild/obj/scene_9.rel
                                          [ scene_9 ]
C:/Users/obi/AppData/Local/Temp/_gbsbuild/obj/script_12.rel
                                          [ script_12 ]
C:/Users/obi/AppData/Local/Temp/_gbsbuild/obj/script_6.rel
                                          [ script_6 ]
C:/Users/obi/AppData/Local/Temp/_gbsbuild/obj/script_7.rel
                                          [ script_7 ]
C:/Users/obi/AppData/Local/Temp/_gbsbuild/obj/script_9.rel
                                          [ script_9 ]
C:/Users/obi/AppData/Local/Temp/_gbsbuild/obj/script_engine_init.rel
                                          [  ]
C:/Users/obi/AppData/Local/Temp/_gbsbuild/obj/script_input_0.rel
                                          [ script_input_0 ]
C:/Users/obi/AppData/Local/Temp/_gbsbuild/obj/sound_sweetsounds_sfx_naked_10.rel
                                          [ sound_sweetsounds_sfx_naked_10 ]
C:/Users/obi/AppData/Local/Temp/_gbsbuild/obj/sound_sweetsounds_sfx_naked_14.rel
                                          [ sound_sweetsounds_sfx_naked_14 ]
C:/Users/obi/AppData/Local/Temp/_gbsbuild/obj/sound_sweetsounds_sfx_naked_2.rel
                                          [ sound_sweetsounds_sfx_naked_2 ]
C:/Users/obi/AppData/Local/Temp/_gbsbuild/obj/sound_sweetsounds_sfx_naked_24.rel
                                          [ sound_sweetsounds_sfx_naked_24 ]
C:/Users/obi/AppData/Local/Temp/_gbsbuild/obj/sound_sweetsounds_sfx_naked_26.rel
                                          [ sound_sweetsounds_sfx_naked_26 ]
C:/Users/obi/AppData/Local/Temp/_gbsbuild/obj/sound_sweetsounds_sfx_naked_28.rel
                                          [ sound_sweetsounds_sfx_naked_28 ]
C:/Users/obi/AppData/Local/Temp/_gbsbuild/obj/sound_sweetsounds_sfx_naked_3.rel
                                          [ sound_sweetsounds_sfx_naked_3 ]
C:/Users/obi/AppData/Local/Temp/_gbsbuild/obj/sound_sweetsounds_sfx_naked_4.rel
                                          [ sound_sweetsounds_sfx_naked_4 ]
C:/Users/obi/AppData/Local/Temp/_gbsbuild/obj/sound_sweetsounds_sfx_naked_6.rel
                                          [ sound_sweetsounds_sfx_naked_6 ]
C:/Users/obi/AppData/Local/Temp/_gbsbuild/obj/sound_sweetsounds_sfx_naked_7.rel
                                          [ sound_sweetsounds_sfx_naked_7 ]
C:/Users/obi/AppData/Local/Temp/_gbsbuild/obj/sprite_05b_2_tileset.rel
                                          [ sprite_05b_2_tileset ]
C:/Users/obi/AppData/Local/Temp/_gbsbuild/obj/sprite_05b_2.rel
                                          [ sprite_05b_2 ]
C:/Users/obi/AppData/Local/Temp/_gbsbuild/obj/sprite_biker_tileset.rel
                                          [ sprite_biker_tileset ]
C:/Users/obi/AppData/Local/Temp/_gbsbuild/obj/sprite_biker.rel
                                          [ sprite_biker ]
C:/Users/obi/AppData/Local/Temp/_gbsbuild/obj/sprite_cat_animation_tileset.rel
                                          [ sprite_cat_animation_tileset ]
C:/Users/obi/AppData/Local/Temp/_gbsbuild/obj/sprite_cat_animation.rel
                                          [ sprite_cat_animation ]
C:/Users/obi/AppData/Local/Temp/_gbsbuild/obj/sprite_cat_animation2_tileset.rel
                                          [ sprite_cat_animation2_tileset ]
C:/Users/obi/AppData/Local/Temp/_gbsbuild/obj/sprite_cat_animation2.rel
                                          [ sprite_cat_animation2 ]
C:/Users/obi/AppData/Local/Temp/_gbsbuild/obj/sprite_catnip_tileset.rel
                                          [ sprite_catnip_tileset ]
C:/Users/obi/AppData/Local/Temp/_gbsbuild/obj/sprite_catnip.rel
                                          [ sprite_catnip ]
C:/Users/obi/AppData/Local/Temp/_gbsbuild/obj/sprite_chest_tileset.rel
                                          [ sprite_chest_tileset ]
C:/Users/obi/AppData/Local/Temp/_gbsbuild/obj/sprite_chest.rel
                                          [ sprite_chest ]
C:/Users/obi/AppData/Local/Temp/_gbsbuild/obj/sprite_kid_boy_tileset.rel
                                          [ sprite_kid_boy_tileset ]
C:/Users/obi/AppData/Local/Temp/_gbsbuild/obj/sprite_kid_boy.rel
                                          [ sprite_kid_boy ]
C:/Users/obi/AppData/Local/Temp/_gbsbuild/obj/sprite_kid_girl_tileset.rel
                                          [ sprite_kid_girl_tileset ]
C:/Users/obi/AppData/Local/Temp/_gbsbuild/obj/sprite_kid_girl.rel
                                          [ sprite_kid_girl ]
C:/Users/obi/AppData/Local/Temp/_gbsbuild/obj/sprite_markus_tileset.rel
                                          [ sprite_markus_tileset ]
C:/Users/obi/AppData/Local/Temp/_gbsbuild/obj/sprite_markus.rel
                                          [ sprite_markus ]
C:/Users/obi/AppData/Local/Temp/_gbsbuild/obj/sprite_martin2_tileset.rel
                                          [ sprite_martin2_tileset ]
C:/Users/obi/AppData/Local/Temp/_gbsbuild/obj/sprite_martin2.rel
                                          [ sprite_martin2 ]
C:/Users/obi/AppData/Local/Temp/_gbsbuild/obj/sprite_npc001_tileset.rel
                                          [ sprite_npc001_tileset ]
C:/Users/obi/AppData/Local/Temp/_gbsbuild/obj/sprite_npc001.rel
                                          [ sprite_npc001 ]
C:/Users/obi/AppData/Local/Temp/_gbsbuild/obj/sprite_npc003_tileset.rel
                                          [ sprite_npc003_tileset ]
C:/Users/obi/AppData/Local/Temp/_gbsbuild/obj/sprite_npc003.rel
                                          [ sprite_npc003 ]
C:/Users/obi/AppData/Local/Temp/_gbsbuild/obj/sprite_npc004_tileset.rel
                                          [ sprite_npc004_tileset ]
C:/Users/obi/AppData/Local/Temp/_gbsbuild/obj/sprite_npc004.rel
                                          [ sprite_npc004 ]
C:/Users/obi/AppData/Local/Temp/_gbsbuild/obj/sprite_npc005_tileset.rel
                                          [ sprite_npc005_tileset ]
C:/Users/obi/AppData/Local/Temp/_gbsbuild/obj/sprite_npc005.rel
                                          [ sprite_npc005 ]
C:/Users/obi/AppData/Local/Temp/_gbsbuild/obj/sprite_npc006_tileset.rel
                                          [ sprite_npc006_tileset ]
C:/Users/obi/AppData/Local/Temp/_gbsbuild/obj/sprite_npc006.rel
                                          [ sprite_npc006 ]
C:/Users/obi/AppData/Local/Temp/_gbsbuild/obj/sprite_npc007_tileset.rel
                                          [ sprite_npc007_tileset ]
C:/Users/obi/AppData/Local/Temp/_gbsbuild/obj/sprite_npc007.rel
                                          [ sprite_npc007 ]
C:/Users/obi/AppData/Local/Temp/_gbsbuild/obj/sprite_npc104_tileset.rel
                                          [ sprite_npc104_tileset ]
C:/Users/obi/AppData/Local/Temp/_gbsbuild/obj/sprite_npc104.rel
                                          [ sprite_npc104 ]
C:/Users/obi/AppData/Local/Temp/_gbsbuild/obj/sprite_npc107_tileset.rel
                                          [ sprite_npc107_tileset ]
C:/Users/obi/AppData/Local/Temp/_gbsbuild/obj/sprite_npc107.rel
                                          [ sprite_npc107 ]
C:/Users/obi/AppData/Local/Temp/_gbsbuild/obj/sprite_npc111_tileset.rel
                                          [ sprite_npc111_tileset ]
C:/Users/obi/AppData/Local/Temp/_gbsbuild/obj/sprite_npc111.rel
                                          [ sprite_npc111 ]
C:/Users/obi/AppData/Local/Temp/_gbsbuild/obj/sprite_npc132_tileset.rel
                                          [ sprite_npc132_tileset ]
C:/Users/obi/AppData/Local/Temp/_gbsbuild/obj/sprite_npc132.rel
                                          [ sprite_npc132 ]
C:/Users/obi/AppData/Local/Temp/_gbsbuild/obj/sprite_npc134_tileset.rel
                                          [ sprite_npc134_tileset ]
C:/Users/obi/AppData/Local/Temp/_gbsbuild/obj/sprite_npc134.rel
                                          [ sprite_npc134 ]
C:/Users/obi/AppData/Local/Temp/_gbsbuild/obj/sprite_npc202_tileset.rel
                                          [ sprite_npc202_tileset ]
C:/Users/obi/AppData/Local/Temp/_gbsbuild/obj/sprite_npc202.rel
                                          [ sprite_npc202 ]
C:/Users/obi/AppData/Local/Temp/_gbsbuild/obj/sprite_pingpongball_tileset.rel
                                          [ sprite_pingpongball_tileset ]
C:/Users/obi/AppData/Local/Temp/_gbsbuild/obj/sprite_pingpongball.rel
                                          [ sprite_pingpongball ]
C:/Users/obi/AppData/Local/Temp/_gbsbuild/obj/sprite_player_tileset.rel
                                          [ sprite_player_tileset ]
C:/Users/obi/AppData/Local/Temp/_gbsbuild/obj/sprite_player.rel
                                          [ sprite_player ]
C:/Users/obi/AppData/Local/Temp/_gbsbuild/obj/sprite_portal2_tileset.rel
                                          [ sprite_portal2_tileset ]
C:/Users/obi/AppData/Local/Temp/_gbsbuild/obj/sprite_portal2.rel
                                          [ sprite_portal2 ]
C:/Users/obi/AppData/Local/Temp/_gbsbuild/obj/sprite_pump_tileset.rel
                                          [ sprite_pump_tileset ]
C:/Users/obi/AppData/Local/Temp/_gbsbuild/obj/sprite_pump.rel
                                          [ sprite_pump ]
C:/Users/obi/AppData/Local/Temp/_gbsbuild/obj/sprite_st_r_tileset.rel
                                          [ sprite_st_r_tileset ]
C:/Users/obi/AppData/Local/Temp/_gbsbuild/obj/sprite_st_r.rel
                                          [ sprite_st_r ]
C:/Users/obi/AppData/Local/Temp/_gbsbuild/obj/sprite_start_btn2_tileset.rel
                                          [ sprite_start_btn2_tileset ]
C:/Users/obi/AppData/Local/Temp/_gbsbuild/obj/sprite_start_btn2.rel
                                          [ sprite_start_btn2 ]
C:/Users/obi/AppData/Local/Temp/_gbsbuild/obj/sprite_sup_winnie_tileset.rel
                                          [ sprite_sup_winnie_tileset ]
C:/Users/obi/AppData/Local/Temp/_gbsbuild/obj/sprite_sup_winnie.rel
                                          [ sprite_sup_winnie ]
C:/Users/obi/AppData/Local/Temp/_gbsbuild/obj/sprite_sup2_tileset.rel
                                          [ sprite_sup2_tileset ]
C:/Users/obi/AppData/Local/Temp/_gbsbuild/obj/sprite_sup2.rel
                                          [ sprite_sup2 ]
C:/Users/obi/AppData/Local/Temp/_gbsbuild/obj/sprite_tobi_tileset.rel
                                          [ sprite_tobi_tileset ]
C:/Users/obi/AppData/Local/Temp/_gbsbuild/obj/sprite_tobi.rel
                                          [ sprite_tobi ]
C:/Users/obi/AppData/Local/Temp/_gbsbuild/obj/sprite_winston_v4_tileset.rel
                                          [ sprite_winston_v4_tileset ]
C:/Users/obi/AppData/Local/Temp/_gbsbuild/obj/sprite_winston_v4.rel
                                          [ sprite_winston_v4 ]
C:/Users/obi/AppData/Local/Temp/_gbsbuild/obj/sprite_winston_v5_tileset.rel
                                          [ sprite_winston_v5_tileset ]
C:/Users/obi/AppData/Local/Temp/_gbsbuild/obj/sprite_winston_v5.rel
                                          [ sprite_winston_v5 ]
C:/Users/obi/AppData/Local/Temp/_gbsbuild/obj/spritesheet_none.rel
                                          [ spritesheet_none ]
C:/Users/obi/AppData/Local/Temp/_gbsbuild/obj/trigger_0_interact.rel
                                          [ trigger_0_interact ]
C:/Users/obi/AppData/Local/Temp/_gbsbuild/obj/trigger_1_interact.rel
                                          [ trigger_1_interact ]
C:/Users/obi/AppData/Local/Temp/_gbsbuild/obj/trigger_10_interact.rel
                                          [ trigger_10_interact ]
C:/Users/obi/AppData/Local/Temp/_gbsbuild/obj/trigger_11_interact.rel
                                          [ trigger_11_interact ]
C:/Users/obi/AppData/Local/Temp/_gbsbuild/obj/trigger_12_interact.rel
                                          [ trigger_12_interact ]
C:/Users/obi/AppData/Local/Temp/_gbsbuild/obj/trigger_13_interact.rel
                                          [ trigger_13_interact ]
C:/Users/obi/AppData/Local/Temp/_gbsbuild/obj/trigger_14_interact.rel
                                          [ trigger_14_interact ]
C:/Users/obi/AppData/Local/Temp/_gbsbuild/obj/trigger_15_interact.rel
                                          [ trigger_15_interact ]
C:/Users/obi/AppData/Local/Temp/_gbsbuild/obj/trigger_16_interact.rel
                                          [ trigger_16_interact ]
C:/Users/obi/AppData/Local/Temp/_gbsbuild/obj/trigger_17_interact.rel
                                          [ trigger_17_interact ]
C:/Users/obi/AppData/Local/Temp/_gbsbuild/obj/trigger_18_interact.rel
                                          [ trigger_18_interact ]
C:/Users/obi/AppData/Local/Temp/_gbsbuild/obj/trigger_19_interact.rel
                                          [ trigger_19_interact ]
C:/Users/obi/AppData/Local/Temp/_gbsbuild/obj/trigger_2_interact.rel
                                          [ trigger_2_interact ]
C:/Users/obi/AppData/Local/Temp/_gbsbuild/obj/trigger_20_interact.rel
                                          [ trigger_20_interact ]
C:/Users/obi/AppData/Local/Temp/_gbsbuild/obj/trigger_21_interact.rel
                                          [ trigger_21_interact ]
C:/Users/obi/AppData/Local/Temp/_gbsbuild/obj/trigger_22_interact.rel
                                          [ trigger_22_interact ]
C:/Users/obi/AppData/Local/Temp/_gbsbuild/obj/trigger_23_interact.rel
                                          [ trigger_23_interact ]
C:/Users/obi/AppData/Local/Temp/_gbsbuild/obj/trigger_24_interact.rel
                                          [ trigger_24_interact ]
C:/Users/obi/AppData/Local/Temp/_gbsbuild/obj/trigger_25_interact.rel
                                          [ trigger_25_interact ]
C:/Users/obi/AppData/Local/Temp/_gbsbuild/obj/trigger_3_interact.rel
                                          [ trigger_3_interact ]
C:/Users/obi/AppData/Local/Temp/_gbsbuild/obj/trigger_4_interact.rel
                                          [ trigger_4_interact ]
C:/Users/obi/AppData/Local/Temp/_gbsbuild/obj/trigger_42_interact.rel
                                          [ trigger_42_interact ]
C:/Users/obi/AppData/Local/Temp/_gbsbuild/obj/trigger_43_interact.rel
                                          [ trigger_43_interact ]
C:/Users/obi/AppData/Local/Temp/_gbsbuild/obj/trigger_44_interact.rel
                                          [ trigger_44_interact ]
C:/Users/obi/AppData/Local/Temp/_gbsbuild/obj/trigger_45_interact.rel
                                          [ trigger_45_interact ]
C:/Users/obi/AppData/Local/Temp/_gbsbuild/obj/trigger_46_interact.rel
                                          [ trigger_46_interact ]
C:/Users/obi/AppData/Local/Temp/_gbsbuild/obj/trigger_47_interact.rel
                                          [ trigger_47_interact ]
C:/Users/obi/AppData/Local/Temp/_gbsbuild/obj/trigger_48_interact.rel
                                          [ trigger_48_interact ]
C:/Users/obi/AppData/Local/Temp/_gbsbuild/obj/trigger_49_interact.rel
                                          [ trigger_49_interact ]
C:/Users/obi/AppData/Local/Temp/_gbsbuild/obj/trigger_5_interact.rel
                                          [ trigger_5_interact ]
C:/Users/obi/AppData/Local/Temp/_gbsbuild/obj/trigger_6_interact.rel
                                          [ trigger_6_interact ]
C:/Users/obi/AppData/Local/Temp/_gbsbuild/obj/trigger_7_interact.rel
                                          [ trigger_7_interact ]
C:/Users/obi/AppData/Local/Temp/_gbsbuild/obj/trigger_8_interact.rel
                                          [ trigger_8_interact ]
C:/Users/obi/AppData/Local/Temp/_gbsbuild/obj/trigger_9_interact.rel
                                          [ trigger_9_interact ]
C:/Users/obi/AppData/Local/Temp/_gbsbuild/obj/main.rel
                                          [ main ]
C:/Users/obi/AppData/Local/Temp/_gbsbuild/obj/adventure.rel
                                          [ adventure ]
C:/Users/obi/AppData/Local/Temp/_gbsbuild/obj/logo.rel
                                          [ logo ]
C:/Users/obi/AppData/Local/Temp/_gbsbuild/obj/platform.rel
                                          [ platform ]
C:/Users/obi/AppData/Local/Temp/_gbsbuild/obj/pointnclick.rel
                                          [ pointnclick ]
C:/Users/obi/AppData/Local/Temp/_gbsbuild/obj/shmup.rel
                                          [ shmup ]
C:/Users/obi/AppData/Local/Temp/_gbsbuild/obj/states_ptrs.rel
                                          [  ]
C:/Users/obi/AppData/Local/Temp/_gbsbuild/obj/topdown.rel
                                          [ topdown ]


Libraries Linked                          [ object file ]

C:\Users\obi\AppData\Local\Temp/_gbstools/gbdk/lib/gb/gb.lib
                                          [ fill_rect_wi.o ]
C:\Users\obi\AppData\Local\Temp/_gbstools/gbdk/lib/sm83/sm83.lib
                                          [ rand.o ]
C:\Users\obi\AppData\Local\Temp/_gbstools/gbdk/lib/gb/gb.lib
                                          [ sfr.o ]
C:\Users\obi\AppData\Local\Temp/_gbstools/gbdk/lib/gb/gb.lib
                                          [ get_data.o ]
C:\Users\obi\AppData\Local\Temp/_gbstools/gbdk/lib/gb/gb.lib
                                          [ get_tile.o ]
C:\Users\obi\AppData\Local\Temp/_gbstools/gbdk/lib/gb/gb.lib
                                          [ cgb_palettes.o ]
lib/gbt_player.lib                        [ gbt_player.o ]
C:\Users\obi\AppData\Local\Temp/_gbstools/gbdk/lib/gb/gb.lib
                                          [ metasprites_hide_spr.o ]
C:\Users\obi\AppData\Local\Temp/_gbstools/gbdk/lib/sm83/sm83.lib
                                          [ mul.o ]
C:\Users\obi\AppData\Local\Temp/_gbstools/gbdk/lib/gb/gb.lib
                                          [ set_tile.o ]
C:\Users\obi\AppData\Local\Temp/_gbstools/gbdk/lib/sm83/sm83.lib
                                          [ abs.o ]
C:\Users\obi\AppData\Local\Temp/_gbstools/gbdk/lib/gb/gb.lib
                                          [ set_wi_t.o ]
C:\Users\obi\AppData\Local\Temp/_gbstools/gbdk/lib/gb/gb.lib
                                          [ set_data.o ]
C:\Users\obi\AppData\Local\Temp/_gbstools/gbdk/lib/sm83/sm83.lib
                                          [ reverse.o ]
C:\Users\obi\AppData\Local\Temp/_gbstools/gbdk/lib/gb/gb.lib
                                          [ far_ptr.o ]
C:\Users\obi\AppData\Local\Temp/_gbstools/gbdk/lib/gb/gb.lib
                                          [ sgb.o ]
C:\Users\obi\AppData\Local\Temp/_gbstools/gbdk/lib/gb/gb.lib
                                          [ lcd.o ]
C:\Users\obi\AppData\Local\Temp/_gbstools/gbdk/lib/gb/gb.lib
                                          [ fill_rect.o ]
C:\Users\obi\AppData\Local\Temp/_gbstools/gbdk/lib/gb/gb.lib
                                          [ cpy_data.o ]
C:\Users\obi\AppData\Local\Temp/_gbstools/gbdk/lib/gb/gb.lib
                                          [ fill_rect_bk.o ]
C:\Users\obi\AppData\Local\Temp/_gbstools/gbdk/lib/gb/gb.lib
                                          [ pad.o ]
C:\Users\obi\AppData\Local\Temp/_gbstools/gbdk/lib/gb/gb.lib
                                          [ metasprites.o ]
C:\Users\obi\AppData\Local\Temp/_gbstools/gbdk/lib/sm83/sm83.lib
                                          [ __sdcc_call_hl.o ]
C:\Users\obi\AppData\Local\Temp/_gbstools/gbdk/lib/sm83/sm83.lib
                                          [ memcpy.o ]
C:\Users\obi\AppData\Local\Temp/_gbstools/gbdk/lib/sm83/sm83.lib
                                          [ _memset.o ]
C:\Users\obi\AppData\Local\Temp/_gbstools/gbdk/lib/gb/gb.lib
                                          [ set_xy_t.o ]
C:\Users\obi\AppData\Local\Temp/_gbstools/gbdk/lib/gb/gb.lib
                                          [ ___sdcc_bcall_ehl.o ]
C:\Users\obi\AppData\Local\Temp/_gbstools/gbdk/lib/gb/gb.lib
                                          [ cgb.o ]
C:\Users\obi\AppData\Local\Temp/_gbstools/gbdk/lib/sm83/sm83.lib
                                          [ div.o ]
C:\Users\obi\AppData\Local\Temp/_gbstools/gbdk/lib/gb/gb.lib
                                          [ set_bk_t.o ]
lib/gbt_player.lib                        [ gbt_player_bank1.o ]

ASxxxx Linker V03.00/V05.40 + sdld,  page 91.

User Base Address Definitions

_DATA=0xC0A0
_CODE=0x0200
ASxxxx Linker V03.00/V05.40 + sdld,  page 92.

User Global Definitions

.STACK=0xDF00
_shadow_OAM=0xC000
.refresh_OAM=0xFF80
__start_save=12

